###############################################################################
#                                                                             #
# IAR C/C++ Compiler V8.10.3.10338/W32 for 8051         25/Mar/2015  23:29:37 #
# Copyright 2004-2011 IAR Systems AB.                                         #
#                                                                             #
#    Core               =  plain                                              #
#    Code model         =  banked                                             #
#    Data model         =  large                                              #
#    Calling convention =  xdata reentrant                                    #
#    Constant location  =  data_rom                                           #
#    Dptr setup         =  1,16                                               #
#    Source file        =  D:\Dropbox\MAO\Work\TCAM\_workspace\ZigBee\EB2530  #
#                          Material\Ch5 Zstack\7.TempHumdDHT11\ZStack-CC2530- #
#                          2.3.0-1.4.0\Projects\zstack\Samples\SampleApp\Sour #
#                          ce\SampleApp.c                                     #
#    Command line       =  -f "D:\Dropbox\MAO\Work\TCAM\_workspace\ZigBee\EB2 #
#                          530 Material\Ch5 Zstack\7.TempHumdDHT11\ZStack-CC2 #
#                          530-2.3.0-1.4.0\Projects\zstack\Samples\SampleApp\ #
#                          CC2530DB\..\..\..\Tools\CC2530DB\f8wEndev.cfg"     #
#                          (-DCPU32MHZ -DROOT=__near_func -DBLINK_LEDS) -f    #
#                          "D:\Dropbox\MAO\Work\TCAM\_workspace\ZigBee\EB2530 #
#                           Material\Ch5 Zstack\7.TempHumdDHT11\ZStack-CC2530 #
#                          -2.3.0-1.4.0\Projects\zstack\Samples\SampleApp\CC2 #
#                          530DB\..\..\..\Tools\CC2530DB\f8wConfig.cfg"       #
#                          (-DSECURE=0 -DZG_SECURE_DYNAMIC=0 -DREFLECTOR      #
#                          -DDEFAULT_CHANLIST=0x00000800                      #
#                          -DZDAPP_CONFIG_PAN_ID=0xFFFF                       #
#                          -DNWK_START_DELAY=100 -DEXTENDED_JOINING_RANDOM_MA #
#                          SK=0x007F -DBEACON_REQUEST_DELAY=100               #
#                          -DBEACON_REQ_DELAY_MASK=0x00FF                     #
#                          -DROUTE_EXPIRY_TIME=30 -DAPSC_ACK_WAIT_DURATION_PO #
#                          LLED=3000 -DNWK_INDIRECT_MSG_TIMEOUT=7             #
#                          -DMAX_RREQ_ENTRIES=8 -DAPSC_MAX_FRAME_RETRIES=3    #
#                          -DNWK_MAX_DATA_RETRIES=2                           #
#                          -DMAX_POLL_FAILURE_RETRIES=2 -DMAX_BCAST=9         #
#                          -DAPS_MAX_GROUPS=16 -DMAX_RTG_ENTRIES=40           #
#                          -DNWK_MAX_BINDING_ENTRIES=4                        #
#                          -DMAX_BINDING_CLUSTER_IDS=4 "-DDEFAULT_KEY={0x01,  #
#                          0x03, 0x05, 0x07, 0x09, 0x0B, 0x0D, 0x0F, 0x00,    #
#                          0x02, 0x04, 0x06, 0x08, 0x0A, 0x0C, 0x0D}"         #
#                          -DMAC_MAX_FRAME_SIZE=116 "-DCONST=const __code"    #
#                          -DGENERIC=__generic -DRFD_RCVC_ALWAYS_ON=FALSE     #
#                          -DPOLL_RATE=1000 -DQUEUED_POLL_RATE=100            #
#                          -DRESPONSE_POLL_RATE=100) -DREJOIN_POLL_RATE=440   #
#                          "D:\Dropbox\MAO\Work\TCAM\_workspace\ZigBee\EB2530 #
#                           Material\Ch5 Zstack\7.TempHumdDHT11\ZStack-CC2530 #
#                          -2.3.0-1.4.0\Projects\zstack\Samples\SampleApp\Sou #
#                          rce\SampleApp.c" -D ZIGBEEPRO -D NWK_AUTO_POLL -D  #
#                          ZTOOL_P1 -D xMT_TASK -D xMT_SYS_FUNC -D            #
#                          xMT_ZDO_FUNC -D LCD_SUPPORTED=DEBUG -lC            #
#                          "D:\Dropbox\MAO\Work\TCAM\_workspace\ZigBee\EB2530 #
#                           Material\Ch5 Zstack\7.TempHumdDHT11\ZStack-CC2530 #
#                          -2.3.0-1.4.0\Projects\zstack\Samples\SampleApp\CC2 #
#                          530DB\EndDeviceEB-Pro\List\" -lA                   #
#                          "D:\Dropbox\MAO\Work\TCAM\_workspace\ZigBee\EB2530 #
#                           Material\Ch5 Zstack\7.TempHumdDHT11\ZStack-CC2530 #
#                          -2.3.0-1.4.0\Projects\zstack\Samples\SampleApp\CC2 #
#                          530DB\EndDeviceEB-Pro\List\" --diag_suppress       #
#                          Pe001,Pa010 -o "D:\Dropbox\MAO\Work\TCAM\_workspac #
#                          e\ZigBee\EB2530 Material\Ch5                       #
#                          Zstack\7.TempHumdDHT11\ZStack-CC2530-2.3.0-1.4.0\P #
#                          rojects\zstack\Samples\SampleApp\CC2530DB\EndDevic #
#                          eEB-Pro\Obj\" -e --debug --core=plain --dptr=16,1  #
#                          --data_model=large --code_model=banked             #
#                          --calling_convention=xdata_reentrant               #
#                          --place_constants=data_rom --nr_virtual_regs 16    #
#                          -I "D:\Dropbox\MAO\Work\TCAM\_workspace\ZigBee\EB2 #
#                          530 Material\Ch5 Zstack\7.TempHumdDHT11\ZStack-CC2 #
#                          530-2.3.0-1.4.0\Projects\zstack\Samples\SampleApp\ #
#                          CC2530DB\" -I "D:\Dropbox\MAO\Work\TCAM\_workspace #
#                          \ZigBee\EB2530 Material\Ch5                        #
#                          Zstack\7.TempHumdDHT11\ZStack-CC2530-2.3.0-1.4.0\P #
#                          rojects\zstack\Samples\SampleApp\CC2530DB\..\SOURC #
#                          E\" -I "D:\Dropbox\MAO\Work\TCAM\_workspace\ZigBee #
#                          \EB2530 Material\Ch5 Zstack\7.TempHumdDHT11\ZStack #
#                          -CC2530-2.3.0-1.4.0\Projects\zstack\Samples\Sample #
#                          App\CC2530DB\..\..\..\ZMAIN\TI2530DB\" -I          #
#                          "D:\Dropbox\MAO\Work\TCAM\_workspace\ZigBee\EB2530 #
#                           Material\Ch5 Zstack\7.TempHumdDHT11\ZStack-CC2530 #
#                          -2.3.0-1.4.0\Projects\zstack\Samples\SampleApp\CC2 #
#                          530DB\..\..\..\..\..\COMPONENTS\MT\" -I            #
#                          "D:\Dropbox\MAO\Work\TCAM\_workspace\ZigBee\EB2530 #
#                           Material\Ch5 Zstack\7.TempHumdDHT11\ZStack-CC2530 #
#                          -2.3.0-1.4.0\Projects\zstack\Samples\SampleApp\CC2 #
#                          530DB\..\..\..\..\..\COMPONENTS\HAL\INCLUDE\" -I   #
#                          "D:\Dropbox\MAO\Work\TCAM\_workspace\ZigBee\EB2530 #
#                           Material\Ch5 Zstack\7.TempHumdDHT11\ZStack-CC2530 #
#                          -2.3.0-1.4.0\Projects\zstack\Samples\SampleApp\CC2 #
#                          530DB\..\..\..\..\..\COMPONENTS\HAL\TARGET\CC2530E #
#                          B\" -I "D:\Dropbox\MAO\Work\TCAM\_workspace\ZigBee #
#                          \EB2530 Material\Ch5 Zstack\7.TempHumdDHT11\ZStack #
#                          -CC2530-2.3.0-1.4.0\Projects\zstack\Samples\Sample #
#                          App\CC2530DB\..\..\..\..\..\COMPONENTS\OSAL\MCU\CC #
#                          SOC\" -I "D:\Dropbox\MAO\Work\TCAM\_workspace\ZigB #
#                          ee\EB2530 Material\Ch5 Zstack\7.TempHumdDHT11\ZSta #
#                          ck-CC2530-2.3.0-1.4.0\Projects\zstack\Samples\Samp #
#                          leApp\CC2530DB\..\..\..\..\..\COMPONENTS\OSAL\INCL #
#                          UDE\" -I "D:\Dropbox\MAO\Work\TCAM\_workspace\ZigB #
#                          ee\EB2530 Material\Ch5 Zstack\7.TempHumdDHT11\ZSta #
#                          ck-CC2530-2.3.0-1.4.0\Projects\zstack\Samples\Samp #
#                          leApp\CC2530DB\..\..\..\..\..\COMPONENTS\STACK\AF\ #
#                          " -I "D:\Dropbox\MAO\Work\TCAM\_workspace\ZigBee\E #
#                          B2530 Material\Ch5 Zstack\7.TempHumdDHT11\ZStack-C #
#                          C2530-2.3.0-1.4.0\Projects\zstack\Samples\SampleAp #
#                          p\CC2530DB\..\..\..\..\..\COMPONENTS\STACK\NWK\"   #
#                          -I "D:\Dropbox\MAO\Work\TCAM\_workspace\ZigBee\EB2 #
#                          530 Material\Ch5 Zstack\7.TempHumdDHT11\ZStack-CC2 #
#                          530-2.3.0-1.4.0\Projects\zstack\Samples\SampleApp\ #
#                          CC2530DB\..\..\..\..\..\COMPONENTS\STACK\SEC\" -I  #
#                          "D:\Dropbox\MAO\Work\TCAM\_workspace\ZigBee\EB2530 #
#                           Material\Ch5 Zstack\7.TempHumdDHT11\ZStack-CC2530 #
#                          -2.3.0-1.4.0\Projects\zstack\Samples\SampleApp\CC2 #
#                          530DB\..\..\..\..\..\COMPONENTS\STACK\SAPI\" -I    #
#                          "D:\Dropbox\MAO\Work\TCAM\_workspace\ZigBee\EB2530 #
#                           Material\Ch5 Zstack\7.TempHumdDHT11\ZStack-CC2530 #
#                          -2.3.0-1.4.0\Projects\zstack\Samples\SampleApp\CC2 #
#                          530DB\..\..\..\..\..\COMPONENTS\STACK\SYS\" -I     #
#                          "D:\Dropbox\MAO\Work\TCAM\_workspace\ZigBee\EB2530 #
#                           Material\Ch5 Zstack\7.TempHumdDHT11\ZStack-CC2530 #
#                          -2.3.0-1.4.0\Projects\zstack\Samples\SampleApp\CC2 #
#                          530DB\..\..\..\..\..\COMPONENTS\STACK\ZDO\" -I     #
#                          "D:\Dropbox\MAO\Work\TCAM\_workspace\ZigBee\EB2530 #
#                           Material\Ch5 Zstack\7.TempHumdDHT11\ZStack-CC2530 #
#                          -2.3.0-1.4.0\Projects\zstack\Samples\SampleApp\CC2 #
#                          530DB\..\..\..\..\..\COMPONENTS\ZMAC\F8W\" -I      #
#                          "D:\Dropbox\MAO\Work\TCAM\_workspace\ZigBee\EB2530 #
#                           Material\Ch5 Zstack\7.TempHumdDHT11\ZStack-CC2530 #
#                          -2.3.0-1.4.0\Projects\zstack\Samples\SampleApp\CC2 #
#                          530DB\..\..\..\..\..\COMPONENTS\ZMAC\" -I          #
#                          "D:\Dropbox\MAO\Work\TCAM\_workspace\ZigBee\EB2530 #
#                           Material\Ch5 Zstack\7.TempHumdDHT11\ZStack-CC2530 #
#                          -2.3.0-1.4.0\Projects\zstack\Samples\SampleApp\CC2 #
#                          530DB\..\..\..\..\..\COMPONENTS\SERVICES\SADDR\"   #
#                          -I "D:\Dropbox\MAO\Work\TCAM\_workspace\ZigBee\EB2 #
#                          530 Material\Ch5 Zstack\7.TempHumdDHT11\ZStack-CC2 #
#                          530-2.3.0-1.4.0\Projects\zstack\Samples\SampleApp\ #
#                          CC2530DB\..\..\..\..\..\COMPONENTS\SERVICES\SDATA\ #
#                          " -I "D:\Dropbox\MAO\Work\TCAM\_workspace\ZigBee\E #
#                          B2530 Material\Ch5 Zstack\7.TempHumdDHT11\ZStack-C #
#                          C2530-2.3.0-1.4.0\Projects\zstack\Samples\SampleAp #
#                          p\CC2530DB\..\..\..\..\..\COMPONENTS\MAC\INCLUDE\" #
#                           -I "D:\Dropbox\MAO\Work\TCAM\_workspace\ZigBee\EB #
#                          2530 Material\Ch5 Zstack\7.TempHumdDHT11\ZStack-CC #
#                          2530-2.3.0-1.4.0\Projects\zstack\Samples\SampleApp #
#                          \CC2530DB\..\..\..\..\..\COMPONENTS\MAC\HIGH_LEVEL #
#                          \" -I "D:\Dropbox\MAO\Work\TCAM\_workspace\ZigBee\ #
#                          EB2530 Material\Ch5 Zstack\7.TempHumdDHT11\ZStack- #
#                          CC2530-2.3.0-1.4.0\Projects\zstack\Samples\SampleA #
#                          pp\CC2530DB\..\..\..\..\..\COMPONENTS\MAC\LOW_LEVE #
#                          L\srf04\" -I "D:\Dropbox\MAO\Work\TCAM\_workspace\ #
#                          ZigBee\EB2530 Material\Ch5                         #
#                          Zstack\7.TempHumdDHT11\ZStack-CC2530-2.3.0-1.4.0\P #
#                          rojects\zstack\Samples\SampleApp\CC2530DB\..\..\.. #
#                          \..\..\COMPONENTS\MAC\LOW_LEVEL\srf04\SINGLE_CHIP\ #
#                          " -Ohz --require_prototypes                        #
#    List file          =  D:\Dropbox\MAO\Work\TCAM\_workspace\ZigBee\EB2530  #
#                          Material\Ch5 Zstack\7.TempHumdDHT11\ZStack-CC2530- #
#                          2.3.0-1.4.0\Projects\zstack\Samples\SampleApp\CC25 #
#                          30DB\EndDeviceEB-Pro\List\SampleApp.lst            #
#    Object file        =  D:\Dropbox\MAO\Work\TCAM\_workspace\ZigBee\EB2530  #
#                          Material\Ch5 Zstack\7.TempHumdDHT11\ZStack-CC2530- #
#                          2.3.0-1.4.0\Projects\zstack\Samples\SampleApp\CC25 #
#                          30DB\EndDeviceEB-Pro\Obj\SampleApp.r51             #
#                                                                             #
#                                                                             #
###############################################################################

D:\Dropbox\MAO\Work\TCAM\_workspace\ZigBee\EB2530 Material\Ch5 Zstack\7.TempHumdDHT11\ZStack-CC2530-2.3.0-1.4.0\Projects\zstack\Samples\SampleApp\Source\SampleApp.c
      1          /**************************************************************************************************
      2            Filename:       SampleApp.c
      3            Revised:        $Date: 2009-03-18 15:56:27 -0700 (Wed, 18 Mar 2009) $
      4            Revision:       $Revision: 19453 $
      5          
      6            Description:    Sample Application (no Profile).
      7          
      8          
      9            Copyright 2007 Texas Instruments Incorporated. All rights reserved.
     10          
     11            IMPORTANT: Your use of this Software is limited to those specific rights
     12            granted under the terms of a software license agreement between the user
     13            who downloaded the software, his/her employer (which must be your employer)
     14            and Texas Instruments Incorporated (the "License").  You may not use this
     15            Software unless you agree to abide by the terms of the License. The License
     16            limits your use, and you acknowledge, that the Software may not be modified,
     17            copied or distributed unless embedded on a Texas Instruments microcontroller
     18            or used solely and exclusively in conjunction with a Texas Instruments radio
     19            frequency transceiver, which is integrated into your product.  Other than for
     20            the foregoing purpose, you may not use, reproduce, copy, prepare derivative
     21            works of, modify, distribute, perform, display or sell this Software and/or
     22            its documentation for any purpose.
     23          
     24            YOU FURTHER ACKNOWLEDGE AND AGREE THAT THE SOFTWARE AND DOCUMENTATION ARE
     25            PROVIDED AS IS?WITHOUT WARRANTY OF ANY KIND, EITHER EXPRESS OR IMPLIED,
     26            INCLUDING WITHOUT LIMITATION, ANY WARRANTY OF MERCHANTABILITY, TITLE,
     27            NON-INFRINGEMENT AND FITNESS FOR A PARTICULAR PURPOSE. IN NO EVENT SHALL
     28            TEXAS INSTRUMENTS OR ITS LICENSORS BE LIABLE OR OBLIGATED UNDER CONTRACT,
     29            NEGLIGENCE, STRICT LIABILITY, CONTRIBUTION, BREACH OF WARRANTY, OR OTHER
     30            LEGAL EQUITABLE THEORY ANY DIRECT OR INDIRECT DAMAGES OR EXPENSES
     31            INCLUDING BUT NOT LIMITED TO ANY INCIDENTAL, SPECIAL, INDIRECT, PUNITIVE
     32            OR CONSEQUENTIAL DAMAGES, LOST PROFITS OR LOST DATA, COST OF PROCUREMENT
     33            OF SUBSTITUTE GOODS, TECHNOLOGY, SERVICES, OR ANY CLAIMS BY THIRD PARTIES
     34            (INCLUDING BUT NOT LIMITED TO ANY DEFENSE THEREOF), OR OTHER SIMILAR COSTS.
     35          
     36            Should you have any questions regarding your right to use this Software,
     37            contact Texas Instruments Incorporated at www.TI.com.
     38          **************************************************************************************************/
     39          
     40          /*********************************************************************
     41            This application isn't intended to do anything useful, it is
     42            intended to be a simple example of an application's structure.
     43          
     44            This application sends it's messages either as broadcast or
     45            broadcast filtered group messages.  The other (more normal)
     46            message addressing is unicast.  Most of the other sample
     47            applications are written to support the unicast message model.
     48          
     49            Key control:
     50              SW1:  Sends a flash command to all devices in Group 1.
     51              SW2:  Adds/Removes (toggles) this device in and out
     52                    of Group 1.  This will enable and disable the
     53                    reception of the flash command.
     54          *********************************************************************/
     55          
     56          /*********************************************************************
     57           * INCLUDES
     58           */
     59          #include "OSAL.h"
     60          #include "ZGlobals.h"
     61          #include "AF.h"
     62          #include "aps_groups.h"
     63          #include "ZDApp.h"
     64          
     65          #include "SampleApp.h"
     66          #include "SampleAppHw.h"
     67          
     68          #include "OnBoard.h"

   \                                 In  segment SFR_AN, at 0x80
   \   union <unnamed> volatile __sfr _A_P0
   \                     _A_P0:
   \   000000                DS 1

   \                                 In  segment SFR_AN, at 0xf3
   \   unsigned char volatile __sfr P0SEL
   \                     P0SEL:
   \   000000                DS 1

   \                                 In  segment SFR_AN, at 0xfd
   \   unsigned char volatile __sfr P0DIR
   \                     P0DIR:
   \   000000                DS 1
     69          
     70          /* HAL */
     71          #include "hal_lcd.h"
     72          #include "hal_led.h"
     73          #include "hal_key.h"
     74          #include "MT_UART.h"
     75          #include "MT_APP.h"
     76          #include "MT.h"
     77          #include "DHT11.h"
     78          #include "GAS.h"
     79          #include <string.h>
     80          
     81          
     82          /*********************************************************************
     83           * MACROS
     84           */
     85          #define IAS_PIN P0_4
     86          #define GAS_PIN P0_6
     87          #define LUM_PIN P0_5
     88          /*********************************************************************
     89           * CONSTANTS
     90           */
     91          
     92          /*********************************************************************
     93           * TYPEDEFS
     94           */
     95          
     96          /*********************************************************************
     97           * GLOBAL VARIABLES
     98           */

   \                                 In  segment XDATA_Z, align 1, keep-with-next
     99          uint8 zclSampleTemperatureSensorSeqNum;
   \                     zclSampleTemperatureSensorSeqNum:
   \   000000                DS 1
   \   000001                REQUIRE __INIT_XDATA_Z
    100          
    101          // This list should be filled with Application specific Cluster IDs.

   \                                 In  segment XDATA_ROM_C, align 1
    102          const cId_t SampleApp_ClusterList[SAMPLEAPP_MAX_CLUSTERS] =
   \                     SampleApp_ClusterList:
   \   000000   0100         DW 1
   \   000002   0200         DW 2
   \   000004   0004         DW 1024
   \   000006   0204         DW 1026
   \   000008   0304         DW 1027
    103          {
    104            SAMPLEAPP_PERIODIC_CLUSTERID,
    105            SAMPLEAPP_FLASH_CLUSTERID,
    106            ZCL_CLUSTER_ID_MS_ILLUMINANCE_MEASUREMENT,
    107            ZCL_CLUSTER_ID_MS_TEMPERATURE_MEASUREMENT,
    108            ZCL_CLUSTER_ID_MS_PRESSURE_MEASUREMENT  
    109          };
    110          

   \                                 In  segment XDATA_ROM_C, align 1
    111          const SimpleDescriptionFormat_t SampleApp_SimpleDesc =
   \                     SampleApp_SimpleDesc:
   \   000000   14           DB 20
   \   000001   FFDF         DW 57343
   \   000003   FFDF         DW 57343
   \   000005   00           DB 0
   \   000006   05           DB 5
   \   000007   ....         DW SampleApp_ClusterList
   \   000009   05           DB 5
   \   00000A   ....         DW SampleApp_ClusterList
    112          {
    113            SAMPLEAPP_ENDPOINT,              //  int Endpoint;
    114            SAMPLEAPP_PROFID,                //  uint16 AppProfId[2];
    115            SAMPLEAPP_DEVICEID,              //  uint16 AppDeviceId[2];
    116            SAMPLEAPP_DEVICE_VERSION,        //  int   AppDevVer:4;
    117            SAMPLEAPP_FLAGS,                 //  int   AppFlags:4;
    118            SAMPLEAPP_MAX_CLUSTERS,          //  uint8  AppNumInClusters;
    119            (cId_t *)SampleApp_ClusterList,  //  uint8 *pAppInClusterList;
    120            SAMPLEAPP_MAX_CLUSTERS,          //  uint8  AppNumInClusters;
    121            (cId_t *)SampleApp_ClusterList   //  uint8 *pAppInClusterList;
    122          };
    123          
    124          // This is the Endpoint/Interface description.  It is defined here, but
    125          // filled-in in SampleApp_Init().  Another way to go would be to fill
    126          // in the structure here and make it a "const" (in code space).  The
    127          // way it's defined in this sample app it is define in RAM.

   \                                 In  segment XDATA_Z, align 1, keep-with-next
    128          endPointDesc_t SampleApp_epDesc;
   \                     SampleApp_epDesc:
   \   000000                DS 6
   \   000006                REQUIRE __INIT_XDATA_Z
    129          
    130          /*********************************************************************
    131           * EXTERNAL VARIABLES
    132           */
    133          
    134          /*********************************************************************
    135           * EXTERNAL FUNCTIONS
    136           */
    137          
    138          /*********************************************************************
    139           * LOCAL VARIABLES
    140           */

   \                                 In  segment XDATA_Z, align 1, keep-with-next
    141          uint8 SampleApp_TaskID;   // Task ID for internal task/event processing
   \                     SampleApp_TaskID:
   \   000000                DS 1
   \   000001                REQUIRE __INIT_XDATA_Z
    142                                    // This variable will be received when
    143                                    // SampleApp_Init() is called.

   \                                 In  segment XDATA_Z, align 1, keep-with-next
    144          devStates_t SampleApp_NwkState;
   \                     SampleApp_NwkState:
   \   000000                DS 1
   \   000001                REQUIRE __INIT_XDATA_Z
    145          

   \                                 In  segment XDATA_Z, align 1, keep-with-next
    146          uint8 SampleApp_TransID;  // This is the unique message ID (counter)
   \                     SampleApp_TransID:
   \   000000                DS 1
   \   000001                REQUIRE __INIT_XDATA_Z
    147          

   \                                 In  segment XDATA_Z, align 1, keep-with-next
    148          afAddrType_t SampleApp_Periodic_DstAddr; //广播
   \                     SampleApp_Periodic_DstAddr:
   \   000000                DS 12
   \   00000C                REQUIRE __INIT_XDATA_Z

   \                                 In  segment XDATA_Z, align 1, keep-with-next
    149          afAddrType_t SampleApp_Flash_DstAddr;    //组播
   \                     SampleApp_Flash_DstAddr:
   \   000000                DS 12
   \   00000C                REQUIRE __INIT_XDATA_Z

   \                                 In  segment XDATA_Z, align 1, keep-with-next
    150          afAddrType_t SampleApp_P2P_DstAddr;      //点播
   \                     SampleApp_P2P_DstAddr:
   \   000000                DS 12
   \   00000C                REQUIRE __INIT_XDATA_Z
    151          

   \                                 In  segment XDATA_Z, align 1, keep-with-next
    152          aps_Group_t SampleApp_Group;
   \                     SampleApp_Group:
   \   000000                DS 18
   \   000012                REQUIRE __INIT_XDATA_Z
    153          

   \                                 In  segment XDATA_Z, align 1, keep-with-next
    154          uint8 SampleAppPeriodicCounter = 0;
   \                     SampleAppPeriodicCounter:
   \   000000                DS 1
   \   000001                REQUIRE __INIT_XDATA_Z

   \                                 In  segment XDATA_Z, align 1, keep-with-next
    155          uint8 SampleAppFlashCounter = 0;
   \                     SampleAppFlashCounter:
   \   000000                DS 1
   \   000001                REQUIRE __INIT_XDATA_Z
    156          
    157          /*********************************************************************
    158           * LOCAL FUNCTIONS
    159           */
    160          void SampleApp_HandleKeys( uint8 shift, uint8 keys );
    161          void SampleApp_MessageMSGCB( afIncomingMSGPacket_t *pckt );
    162          void SampleApp_SendPeriodicMessage( void );
    163          void SampleApp_SendFlashMessage( uint16 flashTime );
    164          void SampleApp_Send_P2P_Message(void);
    165          /*********************************************************************
    166           * NETWORK LAYER CALLBACKS
    167           */
    168          
    169          /*********************************************************************
    170           * PUBLIC FUNCTIONS
    171           */
    172          
    173          /*********************************************************************
    174           * @fn      SampleApp_Init
    175           *
    176           * @brief   Initialization function for the Generic App Task.
    177           *          This is called during initialization and should contain
    178           *          any application specific initialization (ie. hardware
    179           *          initialization/setup, table initialization, power up
    180           *          notificaiton ... ).
    181           *
    182           * @param   task_id - the ID assigned by OSAL.  This ID should be
    183           *                    used to send messages and set timers.
    184           *
    185           * @return  none
    186           */

   \                                 In  segment BANKED_CODE, align 1, keep-with-next
    187          void SampleApp_Init( uint8 task_id )
   \                     SampleApp_Init:
    188          { 
   \   000000   74F5         MOV     A,#-0xb
   \   000002   12....       LCALL   ?BANKED_ENTER_XDATA
   \   000005                ; Saved register size: 11
   \   000005                ; Auto size: 0
   \   000005   E9           MOV     A,R1
   \   000006   FE           MOV     R6,A
    189            SampleApp_TaskID = task_id;
   \   000007   90....       MOV     DPTR,#SampleApp_TaskID
   \   00000A   F0           MOVX    @DPTR,A
    190            SampleApp_NwkState = DEV_INIT;
   \   00000B   90....       MOV     DPTR,#SampleApp_NwkState
   \   00000E   7401         MOV     A,#0x1
   \   000010   F0           MOVX    @DPTR,A
    191            SampleApp_TransID = 0;
   \   000011   90....       MOV     DPTR,#SampleApp_TransID
   \   000014   E4           CLR     A
   \   000015   F0           MOVX    @DPTR,A
    192            zclSampleTemperatureSensorSeqNum = 0;
   \   000016   90....       MOV     DPTR,#zclSampleTemperatureSensorSeqNum
   \   000019   F0           MOVX    @DPTR,A
    193            
    194            MT_UartInit();                  //串口初始化
   \   00001A                ; Setup parameters for call to function MT_UartInit
   \   00001A   12....       LCALL   ??MT_UartInit?relay
    195            MT_UartRegisterTaskID(task_id); //注册串口任务
   \   00001D                ; Setup parameters for call to function MT_UartRegisterTaskID
   \   00001D   EE           MOV     A,R6
   \   00001E   F9           MOV     R1,A
   \   00001F   12....       LCALL   ??MT_UartRegisterTaskID?relay
    196            P0SEL &= 0x7f;                  //P0_7配置成通用io
   \   000022   53F37F       ANL     0xf3,#0x7f
    197            
    198            // Initialize PIR Sensor
    199            P0SEL &= ~0x10;
   \   000025   53F3EF       ANL     0xf3,#0xef
    200            P0DIR &= ~0x10; // P0_4 as PIR input
   \   000028   53FDEF       ANL     0xfd,#0xef
    201            
    202            //P0SEL &= ~0x40;
    203            //P0DIR &= ~0x40; // P0_6 as GAS sensor input
    204            
    205            P0SEL &= 0xDF;
   \   00002B   53F3DF       ANL     0xf3,#0xdf
    206            P0DIR &= 0xDF;  // P0_5 as Lumination input
   \   00002E   53FDDF       ANL     0xfd,#0xdf
    207            
    208            // Device hardware initialization can be added here or in main() (Zmain.c).
    209            // If the hardware is application specific - add it here.
    210            // If the hardware is other parts of the device add it in main().
    211          
    212           #if defined ( BUILD_ALL_DEVICES )
    213            // The "Demo" target is setup to have BUILD_ALL_DEVICES and HOLD_AUTO_START
    214            // We are looking at a jumper (defined in SampleAppHw.c) to be jumpered
    215            // together - if they are - we will start up a coordinator. Otherwise,
    216            // the device will start as a router.
    217            if ( readCoordinatorJumper() )
    218              zgDeviceLogicalType = ZG_DEVICETYPE_COORDINATOR;
    219            else
    220              zgDeviceLogicalType = ZG_DEVICETYPE_ROUTER;
    221          #endif // BUILD_ALL_DEVICES
    222          
    223          #if defined ( HOLD_AUTO_START )
    224            // HOLD_AUTO_START is a compile option that will surpress ZDApp
    225            //  from starting the device and wait for the application to
    226            //  start the device.
    227            ZDOInitDevice(0);
    228          #endif
    229          
    230            // Setup for the periodic message's destination address
    231            // Broadcast to everyone
    232            SampleApp_Periodic_DstAddr.addrMode = (afAddrMode_t)AddrBroadcast;
   \   000031   90....       MOV     DPTR,#SampleApp_Periodic_DstAddr + 8
   \   000034   740F         MOV     A,#0xf
   \   000036   F0           MOVX    @DPTR,A
    233            SampleApp_Periodic_DstAddr.endPoint = SAMPLEAPP_ENDPOINT;
   \   000037   A3           INC     DPTR
   \   000038   7414         MOV     A,#0x14
   \   00003A   F0           MOVX    @DPTR,A
    234            SampleApp_Periodic_DstAddr.addr.shortAddr = 0xFFFF;
   \   00003B   90....       MOV     DPTR,#SampleApp_Periodic_DstAddr
   \   00003E   74FF         MOV     A,#-0x1
   \   000040   F0           MOVX    @DPTR,A
   \   000041   A3           INC     DPTR
   \   000042   F0           MOVX    @DPTR,A
    235          
    236            // Setup for the flash command's destination address - Group 1
    237            SampleApp_Flash_DstAddr.addrMode = (afAddrMode_t)afAddrGroup;
   \   000043   90....       MOV     DPTR,#SampleApp_Flash_DstAddr + 8
   \   000046   7401         MOV     A,#0x1
   \   000048   F0           MOVX    @DPTR,A
    238            SampleApp_Flash_DstAddr.endPoint = SAMPLEAPP_ENDPOINT;
   \   000049   A3           INC     DPTR
   \   00004A   7414         MOV     A,#0x14
   \   00004C   F0           MOVX    @DPTR,A
    239            SampleApp_Flash_DstAddr.addr.shortAddr = SAMPLEAPP_FLASH_GROUP;
   \   00004D   90....       MOV     DPTR,#SampleApp_Flash_DstAddr
   \   000050   7401         MOV     A,#0x1
   \   000052   F0           MOVX    @DPTR,A
   \   000053   A3           INC     DPTR
   \   000054   E4           CLR     A
   \   000055   F0           MOVX    @DPTR,A
    240            
    241            SampleApp_P2P_DstAddr.addrMode = (afAddrMode_t)Addr16Bit; //点播 
   \   000056   90....       MOV     DPTR,#SampleApp_P2P_DstAddr + 8
   \   000059   7402         MOV     A,#0x2
   \   00005B   F0           MOVX    @DPTR,A
    242            SampleApp_P2P_DstAddr.endPoint = SAMPLEAPP_ENDPOINT; 
   \   00005C   A3           INC     DPTR
   \   00005D   7414         MOV     A,#0x14
   \   00005F   F0           MOVX    @DPTR,A
    243            SampleApp_P2P_DstAddr.addr.shortAddr = 0x0000;            //发给协调器
   \   000060   90....       MOV     DPTR,#SampleApp_P2P_DstAddr
   \   000063   E4           CLR     A
   \   000064   F0           MOVX    @DPTR,A
   \   000065   A3           INC     DPTR
   \   000066   F0           MOVX    @DPTR,A
    244          
    245            // Fill out the endpoint description.
    246            SampleApp_epDesc.endPoint = SAMPLEAPP_ENDPOINT;
   \   000067   90....       MOV     DPTR,#SampleApp_epDesc
   \   00006A   7414         MOV     A,#0x14
   \   00006C   F0           MOVX    @DPTR,A
    247            SampleApp_epDesc.task_id = &SampleApp_TaskID;
   \   00006D   A3           INC     DPTR
   \   00006E   74..         MOV     A,#SampleApp_TaskID & 0xff
   \   000070   F0           MOVX    @DPTR,A
   \   000071   A3           INC     DPTR
   \   000072   74..         MOV     A,#(SampleApp_TaskID >> 8) & 0xff
   \   000074   F0           MOVX    @DPTR,A
    248            SampleApp_epDesc.simpleDesc
    249                      = (SimpleDescriptionFormat_t *)&SampleApp_SimpleDesc;
   \   000075   A3           INC     DPTR
   \   000076   74..         MOV     A,#SampleApp_SimpleDesc & 0xff
   \   000078   F0           MOVX    @DPTR,A
   \   000079   A3           INC     DPTR
   \   00007A   74..         MOV     A,#(SampleApp_SimpleDesc >> 8) & 0xff
   \   00007C   F0           MOVX    @DPTR,A
    250            SampleApp_epDesc.latencyReq = noLatencyReqs;
   \   00007D   A3           INC     DPTR
   \   00007E   E4           CLR     A
   \   00007F   F0           MOVX    @DPTR,A
    251          
    252            // Register the endpoint description with the AF
    253            afRegister( &SampleApp_epDesc );
   \   000080                ; Setup parameters for call to function afRegister
   \   000080   7A..         MOV     R2,#SampleApp_epDesc & 0xff
   \   000082   7B..         MOV     R3,#(SampleApp_epDesc >> 8) & 0xff
   \   000084   12....       LCALL   ??afRegister?relay
    254          
    255            // Register for all key events - This app will handle all key events
    256            RegisterForKeys( SampleApp_TaskID );
   \   000087                ; Setup parameters for call to function RegisterForKeys
   \   000087   90....       MOV     DPTR,#SampleApp_TaskID
   \   00008A   E0           MOVX    A,@DPTR
   \   00008B   F9           MOV     R1,A
   \   00008C   12....       LCALL   ??RegisterForKeys?relay
    257          
    258            // By default, all devices start out in Group 1
    259            SampleApp_Group.ID = 0x0001;
   \   00008F   90....       MOV     DPTR,#SampleApp_Group
   \   000092   7401         MOV     A,#0x1
   \   000094   F0           MOVX    @DPTR,A
   \   000095   A3           INC     DPTR
   \   000096   E4           CLR     A
   \   000097   F0           MOVX    @DPTR,A
    260            osal_memcpy( SampleApp_Group.name, "Group 1", 7 );
   \   000098                ; Setup parameters for call to function osal_memcpy
   \   000098   75....       MOV     ?V0 + 0,#`?<Constant "Group 1">` & 0xff
   \   00009B   75....       MOV     ?V0 + 1,#(`?<Constant "Group 1">` >> 8) & 0xff
   \   00009E   F5..         MOV     ?V0 + 2,A
   \   0000A0   78..         MOV     R0,#?V0 + 0
   \   0000A2   12....       LCALL   ?PUSH_XSTACK_I_THREE
   \   0000A5   7C07         MOV     R4,#0x7
   \   0000A7   7D00         MOV     R5,#0x0
   \   0000A9   7A..         MOV     R2,#(SampleApp_Group + 2) & 0xff
   \   0000AB   7B..         MOV     R3,#((SampleApp_Group + 2) >> 8) & 0xff
   \   0000AD   12....       LCALL   ??Subroutine11_0 & 0xFFFF
   \                     ??CrossCallReturnLabel_14:
   \   0000B0   12....       LCALL   ?DEALLOC_XSTACK8
    261            aps_AddGroup( SAMPLEAPP_ENDPOINT, &SampleApp_Group );
   \   0000B3                ; Setup parameters for call to function aps_AddGroup
   \   0000B3   7A..         MOV     R2,#SampleApp_Group & 0xff
   \   0000B5   7B..         MOV     R3,#(SampleApp_Group >> 8) & 0xff
   \   0000B7   7914         MOV     R1,#0x14
   \   0000B9   12....       LCALL   ??aps_AddGroup?relay
    262          
    263          #if defined ( LCD_SUPPORTED )
    264            HalLcdWriteString( "SampleApp", HAL_LCD_LINE_1 );
   \   0000BC                ; Setup parameters for call to function HalLcdWriteString
   \   0000BC   7901         MOV     R1,#0x1
   \   0000BE   7A..         MOV     R2,#`?<Constant "SampleApp">` & 0xff
   \   0000C0   7B..         MOV     R3,#(`?<Constant "SampleApp">` >> 8) & 0xff
   \   0000C2   12....       LCALL   ??HalLcdWriteString?relay
    265          #endif
    266          }
   \   0000C5                REQUIRE ?Subroutine0
   \   0000C5                REQUIRE P0SEL
   \   0000C5                REQUIRE P0DIR
   \   0000C5                ; // Fall through to label ?Subroutine0

   \                                 In  segment BANKED_CODE, align 1, keep-with-next
   \                     ?Subroutine0:
   \   000000   7F03         MOV     R7,#0x3
   \   000002   02....       LJMP    ?BANKED_LEAVE_XDATA

   \                                 In  segment BANKED_CODE, align 1, keep-with-next
   \                     ??Subroutine11_0:
   \   000000   12....       LCALL   ??osal_memcpy?relay
   \   000003   7403         MOV     A,#0x3
   \   000005   22           RET
    267          
    268          /*********************************************************************
    269           * @fn      SampleApp_ProcessEvent
    270           *
    271           * @brief   Generic Application Task event processor.  This function
    272           *          is called to process all events for the task.  Events
    273           *          include timers, messages and any other user defined events.
    274           *
    275           * @param   task_id  - The OSAL assigned task ID.
    276           * @param   events - events to process.  This is a bit map and can
    277           *                   contain more than one event.
    278           *
    279           * @return  none
    280           */

   \                                 In  segment BANKED_CODE, align 1, keep-with-next
    281          uint16 SampleApp_ProcessEvent( uint8 task_id, uint16 events )
   \                     SampleApp_ProcessEvent:
    282          {
   \   000000   74F4         MOV     A,#-0xc
   \   000002   12....       LCALL   ?BANKED_ENTER_XDATA
   \   000005                ; Saved register size: 12
   \   000005                ; Auto size: 0
   \   000005   EA           MOV     A,R2
   \   000006   FE           MOV     R6,A
   \   000007   EB           MOV     A,R3
   \   000008   FF           MOV     R7,A
    283            afIncomingMSGPacket_t *MSGpkt;
    284            (void)task_id;  // Intentionally unreferenced parameter
    285          
    286            if ( events & SYS_EVENT_MSG )
   \   000009   5480         ANL     A,#0x80
   \   00000B   6074         JZ      ??SampleApp_ProcessEvent_0
    287            {
    288              MSGpkt = (afIncomingMSGPacket_t *)osal_msg_receive( SampleApp_TaskID );
   \   00000D                ; Setup parameters for call to function osal_msg_receive
   \   00000D   8026         SJMP    ??SampleApp_ProcessEvent_1
    289              while ( MSGpkt )
    290              {
    291                switch ( MSGpkt->hdr.event )
    292                {
    293                  // Received when a key is pressed
    294                  case KEY_CHANGE:
    295                    SampleApp_HandleKeys( ((keyChange_t *)MSGpkt)->state, ((keyChange_t *)MSGpkt)->keys );
    296                    break;
    297          
    298                  // Received when a messages is received (OTA) for this endpoint
    299                  case AF_INCOMING_MSG_CMD:
    300                    SampleApp_MessageMSGCB( MSGpkt );
    301                    break;
    302          
    303                  // Received whenever the device changes state in the network
    304                  case ZDO_STATE_CHANGE:
    305                    SampleApp_NwkState = (devStates_t)(MSGpkt->hdr.status);
   \                     ??SampleApp_ProcessEvent_2:
   \   00000F   A3           INC     DPTR
   \   000010   E0           MOVX    A,@DPTR
   \   000011   90....       MOV     DPTR,#SampleApp_NwkState
   \   000014   F0           MOVX    @DPTR,A
    306                    if ( //(SampleApp_NwkState == DEV_ZB_COORD) ||
    307                           (SampleApp_NwkState == DEV_ROUTER)
    308                        || (SampleApp_NwkState == DEV_END_DEVICE) )
   \   000015   6407         XRL     A,#0x7
   \   000017   6005         JZ      ??SampleApp_ProcessEvent_3
   \   000019   E0           MOVX    A,@DPTR
   \   00001A   6406         XRL     A,#0x6
   \   00001C   7010         JNZ     ??SampleApp_ProcessEvent_4
    309                    {
    310                      // Start sending the periodic message in a regular interval.
    311                      osal_start_timerEx( SampleApp_TaskID,
    312                                        SAMPLEAPP_SEND_PERIODIC_MSG_EVT,
    313                                        SAMPLEAPP_SEND_PERIODIC_MSG_TIMEOUT );
   \                     ??SampleApp_ProcessEvent_3:
   \   00001E                ; Setup parameters for call to function osal_start_timerEx
   \   00001E   7CB8         MOV     R4,#-0x48
   \   000020   7D0B         MOV     R5,#0xb
   \   000022   7A01         MOV     R2,#0x1
   \   000024   7B00         MOV     R3,#0x0
   \   000026   90....       MOV     DPTR,#SampleApp_TaskID
   \   000029   E0           MOVX    A,@DPTR
   \   00002A   F9           MOV     R1,A
   \   00002B   12....       LCALL   ??osal_start_timerEx?relay
    314                    }
    315                    else
    316                    {
    317                      // Device is no longer in the network
    318                    }
    319                    break;
    320          
    321                  default:
    322                    break;
    323                }
    324          
    325                // Release the memory
    326                osal_msg_deallocate( (uint8 *)MSGpkt );
   \                     ??SampleApp_ProcessEvent_4:
   \   00002E                ; Setup parameters for call to function osal_msg_deallocate
   \   00002E   AA..         MOV     R2,?V0 + 0
   \   000030   AB..         MOV     R3,?V0 + 1
   \   000032   12....       LCALL   ??osal_msg_deallocate?relay
    327          
    328                // Next - if one is available
    329                MSGpkt = (afIncomingMSGPacket_t *)osal_msg_receive( SampleApp_TaskID );
   \   000035                ; Setup parameters for call to function osal_msg_receive
   \                     ??SampleApp_ProcessEvent_1:
   \   000035   90....       MOV     DPTR,#SampleApp_TaskID
   \   000038   E0           MOVX    A,@DPTR
   \   000039   F9           MOV     R1,A
   \   00003A   12....       LCALL   ??osal_msg_receive?relay
   \   00003D   8A..         MOV     ?V0 + 0,R2
   \   00003F   8B..         MOV     ?V0 + 1,R3
   \   000041   E5..         MOV     A,?V0 + 0
   \   000043   45..         ORL     A,?V0 + 1
   \   000045   6032         JZ      ??SampleApp_ProcessEvent_5
   \   000047   85..82       MOV     DPL,?V0 + 0
   \   00004A   85..83       MOV     DPH,?V0 + 1
   \   00004D   E0           MOVX    A,@DPTR
   \   00004E   24E6         ADD     A,#-0x1a
   \   000050   601E         JZ      ??SampleApp_ProcessEvent_6
   \   000052   245A         ADD     A,#0x5a
   \   000054   6006         JZ      ??SampleApp_ProcessEvent_7
   \   000056   24EF         ADD     A,#-0x11
   \   000058   60B5         JZ      ??SampleApp_ProcessEvent_2
   \   00005A   80D2         SJMP    ??SampleApp_ProcessEvent_4
   \                     ??SampleApp_ProcessEvent_7:
   \   00005C                ; Setup parameters for call to function SampleApp_HandleKeys
   \   00005C   A3           INC     DPTR
   \   00005D   A3           INC     DPTR
   \   00005E   A3           INC     DPTR
   \   00005F   E0           MOVX    A,@DPTR
   \   000060   FA           MOV     R2,A
   \   000061   85..82       MOV     DPL,?V0 + 0
   \   000064   85..83       MOV     DPH,?V0 + 1
   \   000067   A3           INC     DPTR
   \   000068   A3           INC     DPTR
   \   000069   E0           MOVX    A,@DPTR
   \   00006A   F9           MOV     R1,A
   \   00006B   12....       LCALL   ??SampleApp_HandleKeys?relay
   \   00006E   80BE         SJMP    ??SampleApp_ProcessEvent_4
   \                     ??SampleApp_ProcessEvent_6:
   \   000070                ; Setup parameters for call to function SampleApp_MessageMSGCB
   \   000070   AA..         MOV     R2,?V0 + 0
   \   000072   AB..         MOV     R3,?V0 + 1
   \   000074   12....       LCALL   ??SampleApp_MessageMSGCB?relay
   \   000077   80B5         SJMP    ??SampleApp_ProcessEvent_4
    330              }
    331          
    332              // return unprocessed events
    333              return (events ^ SYS_EVENT_MSG);
   \                     ??SampleApp_ProcessEvent_5:
   \   000079   EE           MOV     A,R6
   \   00007A   FA           MOV     R2,A
   \   00007B   EF           MOV     A,R7
   \   00007C   6480         XRL     A,#0x80
   \                     ??SampleApp_ProcessEvent_8:
   \   00007E   FB           MOV     R3,A
   \   00007F   802A         SJMP    ??SampleApp_ProcessEvent_9
    334            }
    335          
    336            // Send a message out - This event is generated by a timer
    337            //  (setup in SampleApp_Init()).
    338            if ( events & SAMPLEAPP_SEND_PERIODIC_MSG_EVT )
   \                     ??SampleApp_ProcessEvent_0:
   \   000081   EE           MOV     A,R6
   \   000082   A2E0         MOV     C,0xE0 /* A   */.0
   \   000084   5021         JNC     ??SampleApp_ProcessEvent_10
    339            {
    340              // Send the periodic message
    341              //SampleApp_SendPeriodicMessage();
    342              SampleApp_Send_P2P_Message();
   \   000086                ; Setup parameters for call to function SampleApp_Send_P2P_Message
   \   000086   12....       LCALL   ??SampleApp_Send_P2P_Message?relay
    343          
    344              // Setup to send message again in normal period (+ a little jitter)
    345              osal_start_timerEx( SampleApp_TaskID, SAMPLEAPP_SEND_PERIODIC_MSG_EVT,
    346                  (SAMPLEAPP_SEND_PERIODIC_MSG_TIMEOUT + (osal_rand() & 0x00FF)) );
   \   000089                ; Setup parameters for call to function osal_rand
   \   000089   12....       LCALL   ??osal_rand?relay
   \   00008C                ; Setup parameters for call to function osal_start_timerEx
   \   00008C   EA           MOV     A,R2
   \   00008D   24B8         ADD     A,#-0x48
   \   00008F   FC           MOV     R4,A
   \   000090   E4           CLR     A
   \   000091   340B         ADDC    A,#0xb
   \   000093   FD           MOV     R5,A
   \   000094   7A01         MOV     R2,#0x1
   \   000096   7B00         MOV     R3,#0x0
   \   000098   90....       MOV     DPTR,#SampleApp_TaskID
   \   00009B   E0           MOVX    A,@DPTR
   \   00009C   F9           MOV     R1,A
   \   00009D   12....       LCALL   ??osal_start_timerEx?relay
    347          
    348              // return unprocessed events
    349              return (events ^ SAMPLEAPP_SEND_PERIODIC_MSG_EVT);
   \   0000A0   EE           MOV     A,R6
   \   0000A1   6401         XRL     A,#0x1
   \   0000A3   FA           MOV     R2,A
   \   0000A4   EF           MOV     A,R7
   \   0000A5   80D7         SJMP    ??SampleApp_ProcessEvent_8
    350            }
    351          
    352            // Discard unknown events
    353            return 0;
   \                     ??SampleApp_ProcessEvent_10:
   \   0000A7   7A00         MOV     R2,#0x0
   \   0000A9   7B00         MOV     R3,#0x0
   \                     ??SampleApp_ProcessEvent_9:
   \   0000AB                REQUIRE ?Subroutine1
   \   0000AB                ; // Fall through to label ?Subroutine1
    354          }

   \                                 In  segment BANKED_CODE, align 1, keep-with-next
   \                     ?Subroutine1:
   \   000000   7F04         MOV     R7,#0x4
   \   000002   02....       LJMP    ?BANKED_LEAVE_XDATA
    355          
    356          /*********************************************************************
    357           * Event Generation Functions
    358           */
    359          /*********************************************************************
    360           * @fn      SampleApp_HandleKeys
    361           *
    362           * @brief   Handles all key events for this device.
    363           *
    364           * @param   shift - true if in shift/alt.
    365           * @param   keys - bit field for key events. Valid entries:
    366           *                 HAL_KEY_SW_2
    367           *                 HAL_KEY_SW_1
    368           *
    369           * @return  none
    370           */

   \                                 In  segment BANKED_CODE, align 1, keep-with-next
    371          void SampleApp_HandleKeys( uint8 shift, uint8 keys )
   \                     SampleApp_HandleKeys:
    372          {
   \   000000   74F6         MOV     A,#-0xa
   \   000002   12....       LCALL   ?BANKED_ENTER_XDATA
   \   000005                ; Saved register size: 10
   \   000005                ; Auto size: 0
   \   000005   EA           MOV     A,R2
   \   000006   FE           MOV     R6,A
    373            (void)shift;  // Intentionally unreferenced parameter
    374            
    375            if ( keys & HAL_KEY_SW_1 )
   \   000007   A2E0         MOV     C,0xE0 /* A   */.0
   \   000009   5007         JNC     ??SampleApp_HandleKeys_0
    376            {
    377              /* This key sends the Flash Command is sent to Group 1.
    378               * This device will not receive the Flash Command from this
    379               * device (even if it belongs to group 1).
    380               */
    381              SampleApp_SendFlashMessage( SAMPLEAPP_FLASH_DURATION );
   \   00000B                ; Setup parameters for call to function SampleApp_SendFlashMessage
   \   00000B   7AE8         MOV     R2,#-0x18
   \   00000D   7B03         MOV     R3,#0x3
   \   00000F   12....       LCALL   ??SampleApp_SendFlashMessage?relay
    382            }
    383          
    384            if ( keys & HAL_KEY_SW_2 )
   \                     ??SampleApp_HandleKeys_0:
   \   000012   EE           MOV     A,R6
   \   000013   A2E1         MOV     C,0xE0 /* A   */.1
   \   000015   5024         JNC     ??SampleApp_HandleKeys_1
    385            {
    386              /* The Flashr Command is sent to Group 1.
    387               * This key toggles this device in and out of group 1.
    388               * If this device doesn't belong to group 1, this application
    389               * will not receive the Flash command sent to group 1.
    390               */
    391              aps_Group_t *grp;
    392              grp = aps_FindGroup( SAMPLEAPP_ENDPOINT, SAMPLEAPP_FLASH_GROUP );
    393              if ( grp )
   \   000017                ; Setup parameters for call to function aps_FindGroup
   \   000017   7A01         MOV     R2,#0x1
   \   000019   7B00         MOV     R3,#0x0
   \   00001B   7914         MOV     R1,#0x14
   \   00001D   12....       LCALL   ??aps_FindGroup?relay
   \   000020   8B..         MOV     ?V0 + 1,R3
   \   000022   EA           MOV     A,R2
   \   000023   45..         ORL     A,?V0 + 1
   \   000025   600B         JZ      ??SampleApp_HandleKeys_2
    394              {
    395                // Remove from the group
    396                aps_RemoveGroup( SAMPLEAPP_ENDPOINT, SAMPLEAPP_FLASH_GROUP );
   \   000027                ; Setup parameters for call to function aps_RemoveGroup
   \   000027   7A01         MOV     R2,#0x1
   \   000029   7B00         MOV     R3,#0x0
   \   00002B   7914         MOV     R1,#0x14
   \   00002D   12....       LCALL   ??aps_RemoveGroup?relay
   \   000030   8009         SJMP    ??SampleApp_HandleKeys_1
    397              }
    398              else
    399              {
    400                // Add to the flash group
    401                aps_AddGroup( SAMPLEAPP_ENDPOINT, &SampleApp_Group );
   \                     ??SampleApp_HandleKeys_2:
   \   000032                ; Setup parameters for call to function aps_AddGroup
   \   000032   7A..         MOV     R2,#SampleApp_Group & 0xff
   \   000034   7B..         MOV     R3,#(SampleApp_Group >> 8) & 0xff
   \   000036   7914         MOV     R1,#0x14
   \   000038   12....       LCALL   ??aps_AddGroup?relay
    402              }
    403            }
    404          }
   \                     ??SampleApp_HandleKeys_1:
   \   00003B   02....       LJMP    ??Subroutine9_0 & 0xFFFF

   \                                 In  segment BANKED_CODE, align 1, keep-with-next
   \                     ??Subroutine9_0:
   \   000000   7F02         MOV     R7,#0x2
   \   000002   02....       LJMP    ?BANKED_LEAVE_XDATA
    405          
    406          /*********************************************************************
    407           * LOCAL FUNCTIONS
    408           */
    409          
    410          /*********************************************************************
    411           * @fn      SampleApp_MessageMSGCB
    412           *
    413           * @brief   Data message processor callback.  This function processes
    414           *          any incoming data - probably from other devices.  So, based
    415           *          on cluster ID, perform the intended action.
    416           *
    417           * @param   none
    418           *
    419           * @return  none
    420           */

   \                                 In  segment BANKED_CODE, align 1, keep-with-next
    421          void SampleApp_MessageMSGCB( afIncomingMSGPacket_t *pkt )
   \                     SampleApp_MessageMSGCB:
    422          {
   \   000000   74F4         MOV     A,#-0xc
   \   000002   12....       LCALL   ?BANKED_ENTER_XDATA
   \   000005                ; Saved register size: 12
   \   000005                ; Auto size: 0
   \   000005   EA           MOV     A,R2
   \   000006   FE           MOV     R6,A
   \   000007   EB           MOV     A,R3
   \   000008   FF           MOV     R7,A
    423            uint16 flashTime;
    424          
    425            switch ( pkt->clusterId )
   \   000009   EE           MOV     A,R6
   \   00000A   2421         ADD     A,#0x21
   \   00000C   F5..         MOV     ?V0 + 0,A
   \   00000E   EF           MOV     A,R7
   \   00000F   3400         ADDC    A,#0x0
   \   000011   F5..         MOV     ?V0 + 1,A
   \   000013   8E82         MOV     DPL,R6
   \   000015   8F83         MOV     DPH,R7
   \   000017   A3           INC     DPTR
   \   000018   A3           INC     DPTR
   \   000019   A3           INC     DPTR
   \   00001A   A3           INC     DPTR
   \   00001B   E0           MOVX    A,@DPTR
   \   00001C   F5..         MOV     ?V0 + 2,A
   \   00001E   A3           INC     DPTR
   \   00001F   E0           MOVX    A,@DPTR
   \   000020   F5..         MOV     ?V0 + 3,A
   \   000022   78..         MOV     R0,#?V0 + 2
   \   000024   12....       LCALL   ?US_SWITCH_DENSE
   \                     `?<Jumptable for SampleApp_MessageMSGCB>_0`:
   \   000027   0200         DW        2
   \   000029   02           DB        2
   \   00002A   ....         DW        ??SampleApp_MessageMSGCB_0
   \   00002C   ....         DW        ??SampleApp_MessageMSGCB_1
   \   00002E   ....         DW        ??SampleApp_MessageMSGCB_0
   \   000030   ....         DW        ??SampleApp_MessageMSGCB_2
    426            {
    427              case SAMPLEAPP_P2P_CLUSTERID:
    428                HalUARTWrite(0, "T&H:", 4);       //提示接收到数据
   \                     ??SampleApp_MessageMSGCB_2:
   \   000032                ; Setup parameters for call to function HalUARTWrite
   \   000032   7C04         MOV     R4,#0x4
   \   000034   7D00         MOV     R5,#0x0
   \   000036   7A..         MOV     R2,#`?<Constant "T&H:">` & 0xff
   \   000038   7B..         MOV     R3,#(`?<Constant "T&H:">` >> 8) & 0xff
   \   00003A   7900         MOV     R1,#0x0
   \   00003C   12....       LCALL   ??HalUARTWrite?relay
    429                HalUARTWrite(0, pkt->cmd.Data, pkt->cmd.DataLength); //输出接收到的数据
   \   00003F                ; Setup parameters for call to function HalUARTWrite
   \   00003F   EE           MOV     A,R6
   \   000040   241F         ADD     A,#0x1f
   \   000042   F582         MOV     DPL,A
   \   000044   EF           MOV     A,R7
   \   000045   3400         ADDC    A,#0x0
   \   000047   F583         MOV     DPH,A
   \   000049   E0           MOVX    A,@DPTR
   \   00004A   FC           MOV     R4,A
   \   00004B   A3           INC     DPTR
   \   00004C   E0           MOVX    A,@DPTR
   \   00004D   FD           MOV     R5,A
   \   00004E   85..82       MOV     DPL,?V0 + 0
   \   000051   85..83       MOV     DPH,?V0 + 1
   \   000054   E0           MOVX    A,@DPTR
   \   000055   FA           MOV     R2,A
   \   000056   A3           INC     DPTR
   \   000057   E0           MOVX    A,@DPTR
   \   000058   FB           MOV     R3,A
   \   000059   12....       LCALL   ?Subroutine6 & 0xFFFF
    430                HalUARTWrite(0, "\n", 1);         // 回车换行
    431                break;    
   \                     ??CrossCallReturnLabel_4:
   \   00005C   8037         SJMP    ??SampleApp_MessageMSGCB_0
    432              case SAMPLEAPP_PERIODIC_CLUSTERID:
    433                break;
    434          
    435              case SAMPLEAPP_FLASH_CLUSTERID:
    436                flashTime = BUILD_UINT16(pkt->cmd.Data[1], pkt->cmd.Data[2] );
    437                HalLedBlink( HAL_LED_4, 4, 50, (flashTime / 4) );
   \                     ??SampleApp_MessageMSGCB_1:
   \   00005E   85..82       MOV     DPL,?V0 + 0
   \   000061   85..83       MOV     DPH,?V0 + 1
   \   000064   E0           MOVX    A,@DPTR
   \   000065   F8           MOV     R0,A
   \   000066   A3           INC     DPTR
   \   000067   E0           MOVX    A,@DPTR
   \   000068   F9           MOV     R1,A
   \   000069                ; Setup parameters for call to function HalLedBlink
   \   000069   8882         MOV     DPL,R0
   \   00006B   8983         MOV     DPH,R1
   \   00006D   A3           INC     DPTR
   \   00006E   E0           MOVX    A,@DPTR
   \   00006F   FA           MOV     R2,A
   \   000070   8882         MOV     DPL,R0
   \   000072   8983         MOV     DPH,R1
   \   000074   A3           INC     DPTR
   \   000075   A3           INC     DPTR
   \   000076   E0           MOVX    A,@DPTR
   \   000077   F9           MOV     R1,A
   \   000078   EA           MOV     A,R2
   \   000079   2400         ADD     A,#0x0
   \   00007B   F5..         MOV     ?V0 + 0,A
   \   00007D   E4           CLR     A
   \   00007E   39           ADDC    A,R1
   \   00007F   F5..         MOV     ?V0 + 1,A
   \   000081   7402         MOV     A,#0x2
   \   000083   78..         MOV     R0,#?V0 + 0
   \   000085   12....       LCALL   ?US_SHR
   \   000088   AC..         MOV     R4,?V0 + 0
   \   00008A   AD..         MOV     R5,?V0 + 1
   \   00008C   7B32         MOV     R3,#0x32
   \   00008E   7A04         MOV     R2,#0x4
   \   000090   7908         MOV     R1,#0x8
   \   000092   12....       LCALL   ??HalLedBlink?relay
    438                break;
    439            }
    440          }
   \                     ??SampleApp_MessageMSGCB_0:
   \   000095   02....       LJMP    ?Subroutine1 & 0xFFFF

   \                                 In  segment BANKED_CODE, align 1, keep-with-next
   \                     ?Subroutine6:
   \   000000   7900         MOV     R1,#0x0
   \   000002   12....       LCALL   ??HalUARTWrite?relay
   \   000005                ; Setup parameters for call to function HalUARTWrite
   \   000005                ; Setup parameters for call to function HalUARTWrite
   \   000005   7C01         MOV     R4,#0x1
   \   000007   7D00         MOV     R5,#0x0
   \   000009   7A..         MOV     R2,#`?<Constant "\\n">` & 0xff
   \   00000B   7B..         MOV     R3,#(`?<Constant "\\n">` >> 8) & 0xff
   \   00000D   7900         MOV     R1,#0x0
   \   00000F   12....       LCALL   ??HalUARTWrite?relay
   \   000012   22           RET
    441          
    442          /*********************************************************************
    443           * @fn      SampleApp_SendPeriodicMessage
    444           *
    445           * @brief   Send the periodic message.
    446           *
    447           * @param   none
    448           *
    449           * @return  none
    450           */

   \                                 In  segment BANKED_CODE, align 1, keep-with-next
    451          void SampleApp_SendPeriodicMessage( void )
   \                     SampleApp_SendPeriodicMessage:
    452          {
   \   000000   74F6         MOV     A,#-0xa
   \   000002   12....       LCALL   ?BANKED_ENTER_XDATA
   \   000005                ; Saved register size: 10
   \   000005                ; Auto size: 0
    453            if ( AF_DataRequest( &SampleApp_Periodic_DstAddr, &SampleApp_epDesc,
    454                                 SAMPLEAPP_PERIODIC_CLUSTERID,
    455                                 1,
    456                                 (uint8*)&SampleAppPeriodicCounter,
    457                                 &SampleApp_TransID,
    458                                 AF_DISCV_ROUTE,
    459                                 AF_DEFAULT_RADIUS ) == afStatus_SUCCESS )
   \   000005                ; Setup parameters for call to function AF_DataRequest
   \   000005   75..1E       MOV     ?V0 + 0,#0x1e
   \   000008   78..         MOV     R0,#?V0 + 0
   \   00000A   12....       LCALL   ?PUSH_XSTACK_I_ONE
   \   00000D   75....       MOV     ?V0 + 0,#SampleApp_TransID & 0xff
   \   000010   75....       MOV     ?V0 + 1,#(SampleApp_TransID >> 8) & 0xff
   \   000013   78..         MOV     R0,#?V0 + 0
   \   000015   12....       LCALL   ?PUSH_XSTACK_I_TWO
   \   000018   75....       MOV     ?V0 + 0,#SampleAppPeriodicCounter & 0xff
   \   00001B   75....       MOV     ?V0 + 1,#(SampleAppPeriodicCounter >> 8) & 0xff
   \   00001E   78..         MOV     R0,#?V0 + 0
   \   000020   12....       LCALL   ?PUSH_XSTACK_I_TWO
   \   000023   75..01       MOV     ?V0 + 0,#0x1
   \   000026   75..00       MOV     ?V0 + 1,#0x0
   \   000029   78..         MOV     R0,#?V0 + 0
   \   00002B   12....       LCALL   ?PUSH_XSTACK_I_TWO
   \   00002E   78..         MOV     R0,#?V0 + 0
   \   000030   12....       LCALL   ?PUSH_XSTACK_I_TWO
   \   000033   7920         MOV     R1,#0x20
   \   000035   7C..         MOV     R4,#SampleApp_epDesc & 0xff
   \   000037   7D..         MOV     R5,#(SampleApp_epDesc >> 8) & 0xff
   \   000039   7A..         MOV     R2,#SampleApp_Periodic_DstAddr & 0xff
   \   00003B   7B..         MOV     R3,#(SampleApp_Periodic_DstAddr >> 8) & 0xff
   \   00003D   12....       LCALL   ??Subroutine10_0 & 0xFFFF
   \                     ??CrossCallReturnLabel_9:
   \   000040                REQUIRE ?Subroutine2
   \   000040                ; // Fall through to label ?Subroutine2
    460            {
    461            }
    462            else
    463            {
    464              // Error occurred in request to send.
    465            }
    466          }

   \                                 In  segment BANKED_CODE, align 1, keep-with-next
   \                     ?Subroutine2:
   \   000000   12....       LCALL   ?DEALLOC_XSTACK8
   \   000003                REQUIRE ??Subroutine9_0
   \   000003                ; // Fall through to label ??Subroutine9_0

   \                                 In  segment BANKED_CODE, align 1, keep-with-next
   \                     ??Subroutine10_0:
   \   000000   12....       LCALL   ??AF_DataRequest?relay
   \   000003   7409         MOV     A,#0x9
   \   000005   22           RET
    467          
    468          /*********************************************************************
    469           * @fn      SampleApp_SendFlashMessage
    470           *
    471           * @brief   Send the flash message to group 1.
    472           *
    473           * @param   flashTime - in milliseconds
    474           *
    475           * @return  none
    476           */

   \                                 In  segment BANKED_CODE, align 1, keep-with-next
    477          void SampleApp_SendFlashMessage( uint16 flashTime )
   \                     SampleApp_SendFlashMessage:
    478          {
   \   000000   74F6         MOV     A,#-0xa
   \   000002   12....       LCALL   ?BANKED_ENTER_XDATA
   \   000005                ; Saved register size: 10
   \   000005                ; Auto size: 3
   \   000005   74FD         MOV     A,#-0x3
   \   000007   12....       LCALL   ?ALLOC_XSTACK8
    479            uint8 buffer[3];
    480            buffer[0] = (uint8)(SampleAppFlashCounter++);
   \   00000A   90....       MOV     DPTR,#SampleAppFlashCounter
   \   00000D   E0           MOVX    A,@DPTR
   \   00000E   85..82       MOV     DPL,?XSP + 0
   \   000011   85..83       MOV     DPH,?XSP + 1
   \   000014   F0           MOVX    @DPTR,A
   \   000015   90....       MOV     DPTR,#SampleAppFlashCounter
   \   000018   E0           MOVX    A,@DPTR
   \   000019   04           INC     A
   \   00001A   F0           MOVX    @DPTR,A
    481            buffer[1] = LO_UINT16( flashTime );
   \   00001B   7401         MOV     A,#0x1
   \   00001D   12....       LCALL   ?XSTACK_DISP0_8
   \   000020   EA           MOV     A,R2
   \   000021   F0           MOVX    @DPTR,A
    482            buffer[2] = HI_UINT16( flashTime );
   \   000022   7402         MOV     A,#0x2
   \   000024   12....       LCALL   ?XSTACK_DISP0_8
   \   000027   EB           MOV     A,R3
   \   000028   F0           MOVX    @DPTR,A
    483          
    484            if ( AF_DataRequest( &SampleApp_Flash_DstAddr, &SampleApp_epDesc,
    485                                 SAMPLEAPP_FLASH_CLUSTERID,
    486                                 3,
    487                                 buffer,
    488                                 &SampleApp_TransID,
    489                                 AF_DISCV_ROUTE,
    490                                 AF_DEFAULT_RADIUS ) == afStatus_SUCCESS )
   \   000029                ; Setup parameters for call to function AF_DataRequest
   \   000029   75..1E       MOV     ?V0 + 0,#0x1e
   \   00002C   78..         MOV     R0,#?V0 + 0
   \   00002E   12....       LCALL   ?PUSH_XSTACK_I_ONE
   \   000031   75....       MOV     ?V0 + 0,#SampleApp_TransID & 0xff
   \   000034   75....       MOV     ?V0 + 1,#(SampleApp_TransID >> 8) & 0xff
   \   000037   78..         MOV     R0,#?V0 + 0
   \   000039   12....       LCALL   ?PUSH_XSTACK_I_TWO
   \   00003C   7403         MOV     A,#0x3
   \   00003E   12....       LCALL   ?XSTACK_DISP0_8
   \   000041   8582..       MOV     ?V0 + 0,DPL
   \   000044   8583..       MOV     ?V0 + 1,DPH
   \   000047   78..         MOV     R0,#?V0 + 0
   \   000049   12....       LCALL   ?PUSH_XSTACK_I_TWO
   \   00004C   75..03       MOV     ?V0 + 0,#0x3
   \   00004F   75..00       MOV     ?V0 + 1,#0x0
   \   000052   78..         MOV     R0,#?V0 + 0
   \   000054   12....       LCALL   ?PUSH_XSTACK_I_TWO
   \   000057   75..02       MOV     ?V0 + 0,#0x2
   \   00005A   78..         MOV     R0,#?V0 + 0
   \   00005C   12....       LCALL   ?PUSH_XSTACK_I_TWO
   \   00005F   7920         MOV     R1,#0x20
   \   000061   7C..         MOV     R4,#SampleApp_epDesc & 0xff
   \   000063   7D..         MOV     R5,#(SampleApp_epDesc >> 8) & 0xff
   \   000065   7A..         MOV     R2,#SampleApp_Flash_DstAddr & 0xff
   \   000067   7B..         MOV     R3,#(SampleApp_Flash_DstAddr >> 8) & 0xff
   \   000069   12....       LCALL   ??Subroutine10_0 & 0xFFFF
   \                     ??CrossCallReturnLabel_10:
   \   00006C   12....       LCALL   ?DEALLOC_XSTACK8
    491            {
    492            }
    493            else
    494            {
    495              // Error occurred in request to send.
    496            }
    497          }
   \   00006F   7403         MOV     A,#0x3
   \   000071   80..         SJMP    ?Subroutine2
    498          
    499          
    500          /*********************************************************************
    501           * @fn      SampleApp_Send_P2P_Message
    502           *
    503           * @brief   point to point.
    504           *
    505           * @param   none
    506           *
    507           * @return  none
    508           */

   \                                 In  segment BANKED_CODE, align 1, keep-with-next
   \                     ?Subroutine7:
   \   000000   7920         MOV     R1,#0x20
   \   000002   7C..         MOV     R4,#SampleApp_epDesc & 0xff
   \   000004   7D..         MOV     R5,#(SampleApp_epDesc >> 8) & 0xff
   \   000006   7A..         MOV     R2,#SampleApp_P2P_DstAddr & 0xff
   \   000008   7B..         MOV     R3,#(SampleApp_P2P_DstAddr >> 8) & 0xff
   \   00000A                REQUIRE ??Subroutine10_0
   \   00000A                ; // Fall through to label ??Subroutine10_0

   \                                 In  segment BANKED_CODE, align 1, keep-with-next
    509          void SampleApp_Send_P2P_Message( void )
   \                     SampleApp_Send_P2P_Message:
    510          {
   \   000000   74F5         MOV     A,#-0xb
   \   000002   12....       LCALL   ?BANKED_ENTER_XDATA
   \   000005                ; Saved register size: 11
   \   000005                ; Auto size: 40
   \   000005   74D8         MOV     A,#-0x28
   \   000007   12....       LCALL   ?ALLOC_XSTACK8
    511            int16 zclSampleTemperatureSensor_MeasuredValue;
    512            int16 zclSampleHumiditySensor_MeasuredValue;
    513            uint16 GASData;
    514            byte i, temp[3], humidity[3], strTemp[7], TxBuf[5];
                        ^
Warning[Pe177]: variable "i" was declared but never referenced
    515            byte msgBuf[8]; // Hard coded temperature msg buffer to match cluster specification
    516            byte msgBuf_hum[8]; // Hard coded humidity msg buffer to match cluster specification
    517            byte msgBuf_ias[6]; // Hard coded IAS msg buffer to match cluster specification
    518            uint16 IASStatus = 0;
    519            
    520            DHT11();             //获取温湿度
   \   00000A                ; Setup parameters for call to function DHT11
   \   00000A   12....       LCALL   ??DHT11?relay
    521            
    522            zclSampleTemperatureSensor_MeasuredValue = wendu_shi*10 + wendu_ge; // Set temperature reading
   \   00000D   90....       MOV     DPTR,#wendu_shi
   \   000010   E0           MOVX    A,@DPTR
   \   000011   75F00A       MOV     B,#0xa
   \   000014   A4           MUL     AB
   \   000015   F8           MOV     R0,A
   \   000016   90....       MOV     DPTR,#wendu_ge
   \   000019   12....       LCALL   ?Subroutine3 & 0xFFFF
    523            
    524            msgBuf[0] = 0x18; // Frame Control
   \                     ??CrossCallReturnLabel_0:
   \   00001C   7419         MOV     A,#0x19
   \   00001E   12....       LCALL   ?XSTACK_DISP0_8
   \   000021   12....       LCALL   ?Subroutine4 & 0xFFFF
    525            msgBuf[1] = zclSampleTemperatureSensorSeqNum; // Transaction Sequence Number
   \                     ??CrossCallReturnLabel_15:
   \   000024   C0E0         PUSH    A
   \   000026   741A         MOV     A,#0x1a
   \   000028   12....       LCALL   ?XSTACK_DISP0_8
   \   00002B   D0E0         POP     A
   \   00002D   F0           MOVX    @DPTR,A
    526            zclSampleTemperatureSensorSeqNum++;
    527            msgBuf[2] = 0x0A; // General Command Frame - Report Attributes
   \   00002E   741B         MOV     A,#0x1b
   \   000030   12....       LCALL   ?XSTACK_DISP0_8
   \   000033   740A         MOV     A,#0xa
   \   000035   F0           MOVX    @DPTR,A
    528            msgBuf[3] = ATTRID_MS_TEMPERATURE_MEASURED_VALUE & 0xFF;  // Attribute ID LSB
   \   000036   741C         MOV     A,#0x1c
   \   000038   12....       LCALL   ?XSTACK_DISP0_8
   \   00003B   E4           CLR     A
   \   00003C   F0           MOVX    @DPTR,A
    529            msgBuf[4] = ATTRID_MS_TEMPERATURE_MEASURED_VALUE >> 8 & 0xFF; // Attribute ID MSB
   \   00003D   741D         MOV     A,#0x1d
   \   00003F   12....       LCALL   ?XSTACK_DISP0_8
   \   000042   E4           CLR     A
   \   000043   F0           MOVX    @DPTR,A
    530            msgBuf[5] = ZCL_DATATYPE_INT16; // Attribute Data Type
   \   000044   741E         MOV     A,#0x1e
   \   000046   12....       LCALL   ?XSTACK_DISP0_8
   \   000049   7429         MOV     A,#0x29
   \   00004B   F0           MOVX    @DPTR,A
    531            msgBuf[6] = zclSampleTemperatureSensor_MeasuredValue & 0xFF; // Measured Temperature Reading LSB
   \   00004C   741F         MOV     A,#0x1f
   \   00004E   12....       LCALL   ?XSTACK_DISP0_8
   \   000051   E5..         MOV     A,?V0 + 0
   \   000053   F0           MOVX    @DPTR,A
    532            msgBuf[7] = zclSampleTemperatureSensor_MeasuredValue >> 8 & 0xFF;  // Measured Temperature Reading MSB
   \   000054   7408         MOV     A,#0x8
   \   000056   78..         MOV     R0,#?V0 + 0
   \   000058   12....       LCALL   ?SS_SHR
   \   00005B   7420         MOV     A,#0x20
   \   00005D   12....       LCALL   ?XSTACK_DISP0_8
   \   000060   E5..         MOV     A,?V0 + 0
   \   000062   F0           MOVX    @DPTR,A
    533            
    534            zclSampleHumiditySensor_MeasuredValue = shidu_shi*10 + shidu_ge; // Set temperature reading
   \   000063   90....       MOV     DPTR,#shidu_shi
   \   000066   E0           MOVX    A,@DPTR
   \   000067   75F00A       MOV     B,#0xa
   \   00006A   A4           MUL     AB
   \   00006B   F8           MOV     R0,A
   \   00006C   90....       MOV     DPTR,#shidu_ge
   \   00006F   12....       LCALL   ?Subroutine3 & 0xFFFF
    535            msgBuf_hum[0] = 0x18; // Frame Control
   \                     ??CrossCallReturnLabel_1:
   \   000072   7411         MOV     A,#0x11
   \   000074   12....       LCALL   ?XSTACK_DISP0_8
   \   000077   12....       LCALL   ?Subroutine4 & 0xFFFF
    536            msgBuf_hum[1] = zclSampleTemperatureSensorSeqNum; // Transaction Sequence Number
   \                     ??CrossCallReturnLabel_16:
   \   00007A   04           INC     A
   \   00007B   F8           MOV     R0,A
   \   00007C   7412         MOV     A,#0x12
   \   00007E   12....       LCALL   ?XSTACK_DISP0_8
   \   000081   E8           MOV     A,R0
   \   000082   F0           MOVX    @DPTR,A
    537            zclSampleTemperatureSensorSeqNum++;
   \   000083   7401         MOV     A,#0x1
   \   000085   28           ADD     A,R0
   \   000086   90....       MOV     DPTR,#zclSampleTemperatureSensorSeqNum
   \   000089   F0           MOVX    @DPTR,A
    538            msgBuf_hum[2] = 0x0A; // General Command Frame - Report Attributes
   \   00008A   7413         MOV     A,#0x13
   \   00008C   12....       LCALL   ?XSTACK_DISP0_8
   \   00008F   740A         MOV     A,#0xa
   \   000091   F0           MOVX    @DPTR,A
    539            msgBuf_hum[3] = ATTRID_MS_RELATIVE_HUMIDITY_MEASURED_VALUE & 0xFF;  // Attribute ID LSB
   \   000092   7414         MOV     A,#0x14
   \   000094   12....       LCALL   ?XSTACK_DISP0_8
   \   000097   E4           CLR     A
   \   000098   F0           MOVX    @DPTR,A
    540            msgBuf_hum[4] = ATTRID_MS_RELATIVE_HUMIDITY_MEASURED_VALUE >> 8 & 0xFF; // Attribute ID MSB
   \   000099   7415         MOV     A,#0x15
   \   00009B   12....       LCALL   ?XSTACK_DISP0_8
   \   00009E   E4           CLR     A
   \   00009F   F0           MOVX    @DPTR,A
    541            msgBuf_hum[5] = ZCL_DATATYPE_UINT16; // Attribute Data Type
   \   0000A0   7416         MOV     A,#0x16
   \   0000A2   12....       LCALL   ?XSTACK_DISP0_8
   \   0000A5   7421         MOV     A,#0x21
   \   0000A7   F0           MOVX    @DPTR,A
    542            msgBuf_hum[6] = zclSampleHumiditySensor_MeasuredValue & 0xFF; // Measured Temperature Reading LSB
   \   0000A8   7417         MOV     A,#0x17
   \   0000AA   12....       LCALL   ?XSTACK_DISP0_8
   \   0000AD   E5..         MOV     A,?V0 + 0
   \   0000AF   F0           MOVX    @DPTR,A
    543            msgBuf_hum[7] = zclSampleHumiditySensor_MeasuredValue >> 8 & 0xFF;  // Measured Temperature Reading MSB
   \   0000B0   7408         MOV     A,#0x8
   \   0000B2   78..         MOV     R0,#?V0 + 0
   \   0000B4   12....       LCALL   ?SS_SHR
   \   0000B7   7418         MOV     A,#0x18
   \   0000B9   12....       LCALL   ?XSTACK_DISP0_8
   \   0000BC   E5..         MOV     A,?V0 + 0
   \   0000BE   F0           MOVX    @DPTR,A
    544            
    545            
    546            //  zclSampleTemperatureSensorSeqNum++; // Increment sensor report sequence number
    547             
    548            //将温湿度的转换成字符串,供LCD显示  
    549            temp[0] = wendu_shi+0x30;
   \   0000BF   90....       MOV     DPTR,#wendu_shi
   \   0000C2   E0           MOVX    A,@DPTR
   \   0000C3   2430         ADD     A,#0x30
   \   0000C5   C0E0         PUSH    A
   \   0000C7   7403         MOV     A,#0x3
   \   0000C9   12....       LCALL   ?XSTACK_DISP0_8
   \   0000CC   D0E0         POP     A
   \   0000CE   F0           MOVX    @DPTR,A
    550            temp[1] = wendu_ge+0x30;
   \   0000CF   90....       MOV     DPTR,#wendu_ge
   \   0000D2   E0           MOVX    A,@DPTR
   \   0000D3   2430         ADD     A,#0x30
   \   0000D5   C0E0         PUSH    A
   \   0000D7   7404         MOV     A,#0x4
   \   0000D9   12....       LCALL   ?XSTACK_DISP0_8
   \   0000DC   D0E0         POP     A
   \   0000DE   F0           MOVX    @DPTR,A
    551            temp[2] = '\0';
   \   0000DF   7405         MOV     A,#0x5
   \   0000E1   12....       LCALL   ?XSTACK_DISP0_8
   \   0000E4   E4           CLR     A
   \   0000E5   F0           MOVX    @DPTR,A
    552            humidity[0] = shidu_shi+0x30;
   \   0000E6   90....       MOV     DPTR,#shidu_shi
   \   0000E9   E0           MOVX    A,@DPTR
   \   0000EA   2430         ADD     A,#0x30
   \   0000EC   85..82       MOV     DPL,?XSP + 0
   \   0000EF   85..83       MOV     DPH,?XSP + 1
   \   0000F2   F0           MOVX    @DPTR,A
    553            humidity[1] = shidu_ge+0x30;
   \   0000F3   90....       MOV     DPTR,#shidu_ge
   \   0000F6   E0           MOVX    A,@DPTR
   \   0000F7   2430         ADD     A,#0x30
   \   0000F9   C0E0         PUSH    A
   \   0000FB   7401         MOV     A,#0x1
   \   0000FD   12....       LCALL   ?XSTACK_DISP0_8
   \   000100   D0E0         POP     A
   \   000102   F0           MOVX    @DPTR,A
    554            humidity[2] = '\0';
   \   000103   7402         MOV     A,#0x2
   \   000105   12....       LCALL   ?XSTACK_DISP0_8
   \   000108   E4           CLR     A
   \   000109   F0           MOVX    @DPTR,A
    555            //将数据整合后方便发给协调器显示
    556            osal_memcpy(strTemp, temp, 2); 
   \   00010A                ; Setup parameters for call to function osal_memcpy
   \   00010A   7403         MOV     A,#0x3
   \   00010C   12....       LCALL   ?XSTACK_DISP0_8
   \   00010F   A982         MOV     R1,DPL
   \   000111   AA83         MOV     R2,DPH
   \   000113   89..         MOV     ?V0 + 0,R1
   \   000115   8A..         MOV     ?V0 + 1,R2
   \   000117   75..00       MOV     ?V0 + 2,#0x0
   \   00011A   78..         MOV     R0,#?V0 + 0
   \   00011C   12....       LCALL   ?PUSH_XSTACK_I_THREE
   \   00011F   7C02         MOV     R4,#0x2
   \   000121   7D00         MOV     R5,#0x0
   \   000123   7424         MOV     A,#0x24
   \   000125   12....       LCALL   ?XSTACK_DISP0_8
   \   000128   12....       LCALL   ?Subroutine8 & 0xFFFF
   \                     ??CrossCallReturnLabel_11:
   \   00012B   12....       LCALL   ?DEALLOC_XSTACK8
    557            osal_memcpy(&strTemp[2], "  ", 2);
   \   00012E                ; Setup parameters for call to function osal_memcpy
   \   00012E   75....       MOV     ?V0 + 0,#`?<Constant "  ">` & 0xff
   \   000131   75....       MOV     ?V0 + 1,#(`?<Constant "  ">` >> 8) & 0xff
   \   000134   78..         MOV     R0,#?V0 + 0
   \   000136   12....       LCALL   ?PUSH_XSTACK_I_THREE
   \   000139   7C02         MOV     R4,#0x2
   \   00013B   7D00         MOV     R5,#0x0
   \   00013D   7426         MOV     A,#0x26
   \   00013F   12....       LCALL   ?XSTACK_DISP0_8
   \   000142   12....       LCALL   ?Subroutine8 & 0xFFFF
   \                     ??CrossCallReturnLabel_12:
   \   000145   12....       LCALL   ?DEALLOC_XSTACK8
    558            osal_memcpy(&strTemp[4], humidity, 3);
   \   000148                ; Setup parameters for call to function osal_memcpy
   \   000148   85..82       MOV     DPL,?XSP + 0
   \   00014B   85..83       MOV     DPH,?XSP + 1
   \   00014E   A982         MOV     R1,DPL
   \   000150   AA83         MOV     R2,DPH
   \   000152   89..         MOV     ?V0 + 0,R1
   \   000154   8A..         MOV     ?V0 + 1,R2
   \   000156   78..         MOV     R0,#?V0 + 0
   \   000158   12....       LCALL   ?PUSH_XSTACK_I_THREE
   \   00015B   7C03         MOV     R4,#0x3
   \   00015D   7D00         MOV     R5,#0x0
   \   00015F   7428         MOV     A,#0x28
   \   000161   12....       LCALL   ?XSTACK_DISP0_8
   \   000164   12....       LCALL   ?Subroutine8 & 0xFFFF
   \                     ??CrossCallReturnLabel_13:
   \   000167   12....       LCALL   ?DEALLOC_XSTACK8
    559            
    560            GASData = ReadGasData();
   \   00016A                ; Setup parameters for call to function ReadGasData
   \   00016A   12....       LCALL   ??ReadGasData?relay
   \   00016D   8A..         MOV     ?V0 + 0,R2
   \   00016F   8B..         MOV     ?V0 + 1,R3
   \   000171   AC..         MOV     R4,?V0 + 0
   \   000173   AD..         MOV     R5,?V0 + 1
    561            
    562            TxBuf[0] = GASData / 100 + '0';
   \   000175   EC           MOV     A,R4
   \   000176   F8           MOV     R0,A
   \   000177   ED           MOV     A,R5
   \   000178   F9           MOV     R1,A
   \   000179   7A64         MOV     R2,#0x64
   \   00017B   7B00         MOV     R3,#0x0
   \   00017D   12....       LCALL   ?US_DIV_MOD
   \   000180   E8           MOV     A,R0
   \   000181   2430         ADD     A,#0x30
   \   000183   C0E0         PUSH    A
   \   000185   7406         MOV     A,#0x6
   \   000187   12....       LCALL   ?XSTACK_DISP0_8
   \   00018A   D0E0         POP     A
   \   00018C   12....       LCALL   ?Subroutine5 & 0xFFFF
    563            TxBuf[1] = GASData / 10%10 + '0';
   \                     ??CrossCallReturnLabel_2:
   \   00018F   12....       LCALL   ?US_DIV_MOD
   \   000192   7A0A         MOV     R2,#0xa
   \   000194   7B00         MOV     R3,#0x0
   \   000196   12....       LCALL   ?US_DIV_MOD
   \   000199   EA           MOV     A,R2
   \   00019A   2430         ADD     A,#0x30
   \   00019C   C0E0         PUSH    A
   \   00019E   7407         MOV     A,#0x7
   \   0001A0   12....       LCALL   ?XSTACK_DISP0_8
   \   0001A3   D0E0         POP     A
   \   0001A5   12....       LCALL   ?Subroutine5 & 0xFFFF
    564            TxBuf[2] = GASData % 10 + '0';
   \                     ??CrossCallReturnLabel_3:
   \   0001A8   12....       LCALL   ?US_DIV_MOD
   \   0001AB   EA           MOV     A,R2
   \   0001AC   2430         ADD     A,#0x30
   \   0001AE   C0E0         PUSH    A
   \   0001B0   7408         MOV     A,#0x8
   \   0001B2   12....       LCALL   ?XSTACK_DISP0_8
   \   0001B5   D0E0         POP     A
   \   0001B7   F0           MOVX    @DPTR,A
    565            TxBuf[3] = '\n';
   \   0001B8   7409         MOV     A,#0x9
   \   0001BA   12....       LCALL   ?XSTACK_DISP0_8
   \   0001BD   740A         MOV     A,#0xa
   \   0001BF   F0           MOVX    @DPTR,A
    566            TxBuf[4] = 0;
   \   0001C0   12....       LCALL   ?XSTACK_DISP0_8
   \   0001C3   E4           CLR     A
   \   0001C4   F0           MOVX    @DPTR,A
    567            
    568            HalUARTWrite(0, "Gas:", 4);
   \   0001C5                ; Setup parameters for call to function HalUARTWrite
   \   0001C5   7C04         MOV     R4,#0x4
   \   0001C7   FD           MOV     R5,A
   \   0001C8   7A..         MOV     R2,#`?<Constant "Gas:">` & 0xff
   \   0001CA   7B..         MOV     R3,#(`?<Constant "Gas:">` >> 8) & 0xff
   \   0001CC   F9           MOV     R1,A
   \   0001CD   12....       LCALL   ??HalUARTWrite?relay
    569            HalUARTWrite(0, TxBuf, 4);
   \   0001D0                ; Setup parameters for call to function HalUARTWrite
   \   0001D0   7C04         MOV     R4,#0x4
   \   0001D2   7D00         MOV     R5,#0x0
   \   0001D4   7406         MOV     A,#0x6
   \   0001D6   12....       LCALL   ?XSTACK_DISP0_8
   \   0001D9   AA82         MOV     R2,DPL
   \   0001DB   AB83         MOV     R3,DPH
   \   0001DD   7900         MOV     R1,#0x0
   \   0001DF   12....       LCALL   ??HalUARTWrite?relay
    570            
    571            //获得的温湿度通过串口输出到电脑显示
    572            HalUARTWrite(0, "T&H:", 4);
   \   0001E2                ; Setup parameters for call to function HalUARTWrite
   \   0001E2   7C04         MOV     R4,#0x4
   \   0001E4   7D00         MOV     R5,#0x0
   \   0001E6   7A..         MOV     R2,#`?<Constant "T&H:">` & 0xff
   \   0001E8   7B..         MOV     R3,#(`?<Constant "T&H:">` >> 8) & 0xff
   \   0001EA   7900         MOV     R1,#0x0
   \   0001EC   12....       LCALL   ??HalUARTWrite?relay
    573            HalUARTWrite(0, strTemp, 6);
   \   0001EF                ; Setup parameters for call to function HalUARTWrite
   \   0001EF   7C06         MOV     R4,#0x6
   \   0001F1   7D00         MOV     R5,#0x0
   \   0001F3   7421         MOV     A,#0x21
   \   0001F5   12....       LCALL   ?XSTACK_DISP0_8
   \   0001F8   AA82         MOV     R2,DPL
   \   0001FA   AB83         MOV     R3,DPH
   \   0001FC   12....       LCALL   ?Subroutine6 & 0xFFFF
    574            HalUARTWrite(0, "\n",1);
    575          
    576            //输出到LCD显示
    577            //for(i=0; i<3; i++)
    578            //{   
    579            //  if(i==0)
    580            //  {
    581            //    LCD_P16x16Ch(i*16,4,i*16);
    582            //    LCD_P16x16Ch(i*16,6,(i+3)*16);
    583            //  }
    584            //  else
    585            //  {
    586            //    LCD_P16x16Ch(i*16,4,i*16);
    587            //    LCD_P16x16Ch(i*16,6,i*16);        
    588            //  }
    589            //} 
    590            //LCD_P8x16Str(44, 4, temp);
    591            //LCD_P8x16Str(44, 6, humidity);
    592           
    593            // Report Temperature
    594            if ( AF_DataRequest( &SampleApp_P2P_DstAddr, &SampleApp_epDesc,
    595                                 ZCL_CLUSTER_ID_MS_TEMPERATURE_MEASUREMENT,
    596                                 8,
    597                                 (unsigned char *)msgBuf,
    598                                 &SampleApp_TransID,
    599                                 AF_DISCV_ROUTE,
    600                                 AF_DEFAULT_RADIUS ) == afStatus_SUCCESS )
   \                     ??CrossCallReturnLabel_5:
   \   0001FF                ; Setup parameters for call to function AF_DataRequest
   \   0001FF   75..1E       MOV     ?V0 + 0,#0x1e
   \   000202   78..         MOV     R0,#?V0 + 0
   \   000204   12....       LCALL   ?PUSH_XSTACK_I_ONE
   \   000207   75....       MOV     ?V0 + 0,#SampleApp_TransID & 0xff
   \   00020A   75....       MOV     ?V0 + 1,#(SampleApp_TransID >> 8) & 0xff
   \   00020D   78..         MOV     R0,#?V0 + 0
   \   00020F   12....       LCALL   ?PUSH_XSTACK_I_TWO
   \   000212   741C         MOV     A,#0x1c
   \   000214   12....       LCALL   ?XSTACK_DISP0_8
   \   000217   8582..       MOV     ?V0 + 0,DPL
   \   00021A   8583..       MOV     ?V0 + 1,DPH
   \   00021D   78..         MOV     R0,#?V0 + 0
   \   00021F   12....       LCALL   ?PUSH_XSTACK_I_TWO
   \   000222   75..08       MOV     ?V0 + 0,#0x8
   \   000225   75..00       MOV     ?V0 + 1,#0x0
   \   000228   78..         MOV     R0,#?V0 + 0
   \   00022A   12....       LCALL   ?PUSH_XSTACK_I_TWO
   \   00022D   75..02       MOV     ?V0 + 0,#0x2
   \   000230   75..04       MOV     ?V0 + 1,#0x4
   \   000233   78..         MOV     R0,#?V0 + 0
   \   000235   12....       LCALL   ?PUSH_XSTACK_I_TWO
   \   000238   12....       LCALL   ?Subroutine7 & 0xFFFF
   \                     ??CrossCallReturnLabel_6:
   \   00023B   12....       LCALL   ?DEALLOC_XSTACK8
    601            {
    602            }
    603            else
    604            {
    605              // Error occurred in request to send.
    606            }
    607            // Report Humidity
    608            if ( AF_DataRequest( &SampleApp_P2P_DstAddr, &SampleApp_epDesc,
    609                                 ZCL_CLUSTER_ID_MS_RELATIVE_HUMIDITY,
    610                                 8,
    611                                 (unsigned char *)msgBuf_hum,
    612                                 &SampleApp_TransID,
    613                                 AF_DISCV_ROUTE,
    614                                 AF_DEFAULT_RADIUS ) == afStatus_SUCCESS )
   \   00023E                ; Setup parameters for call to function AF_DataRequest
   \   00023E   75..1E       MOV     ?V0 + 0,#0x1e
   \   000241   78..         MOV     R0,#?V0 + 0
   \   000243   12....       LCALL   ?PUSH_XSTACK_I_ONE
   \   000246   75....       MOV     ?V0 + 0,#SampleApp_TransID & 0xff
   \   000249   75....       MOV     ?V0 + 1,#(SampleApp_TransID >> 8) & 0xff
   \   00024C   78..         MOV     R0,#?V0 + 0
   \   00024E   12....       LCALL   ?PUSH_XSTACK_I_TWO
   \   000251   7414         MOV     A,#0x14
   \   000253   12....       LCALL   ?XSTACK_DISP0_8
   \   000256   8582..       MOV     ?V0 + 0,DPL
   \   000259   8583..       MOV     ?V0 + 1,DPH
   \   00025C   78..         MOV     R0,#?V0 + 0
   \   00025E   12....       LCALL   ?PUSH_XSTACK_I_TWO
   \   000261   75..08       MOV     ?V0 + 0,#0x8
   \   000264   75..00       MOV     ?V0 + 1,#0x0
   \   000267   78..         MOV     R0,#?V0 + 0
   \   000269   12....       LCALL   ?PUSH_XSTACK_I_TWO
   \   00026C   75..05       MOV     ?V0 + 0,#0x5
   \   00026F   75..04       MOV     ?V0 + 1,#0x4
   \   000272   78..         MOV     R0,#?V0 + 0
   \   000274   12....       LCALL   ?PUSH_XSTACK_I_TWO
   \   000277   12....       LCALL   ?Subroutine7 & 0xFFFF
   \                     ??CrossCallReturnLabel_7:
   \   00027A   12....       LCALL   ?DEALLOC_XSTACK8
    615            {
    616            }
    617            else
    618            {
    619              // Error occurred in request to send.
    620            }
    621            
    622            if(IAS_PIN == 1){
   \   00027D   A284         MOV     C,0x80.4
   \   00027F   5018         JNC     ??SampleApp_Send_P2P_Message_0
    623              MicroWait(1000);
   \   000281                ; Setup parameters for call to function Onboard_wait
   \   000281   7AE8         MOV     R2,#-0x18
   \   000283   7B03         MOV     R3,#0x3
   \   000285   12....       LCALL   ??Onboard_wait?relay
    624              if(IAS_PIN == 1){
    625                IASStatus = 0x0001;
    626              }else{
    627                IASStatus = 0x0000;
   \   000288   A284         MOV     C,0x80.4
   \   00028A   5004         JNC     ??SampleApp_Send_P2P_Message_1
   \   00028C   D2F0         SETB    B.0
   \   00028E   8002         SJMP    ??SampleApp_Send_P2P_Message_2
   \                     ??SampleApp_Send_P2P_Message_1:
   \   000290   C2F0         CLR     B.0
   \                     ??SampleApp_Send_P2P_Message_2:
   \   000292   A2F0         MOV     C,B.0
   \   000294   E4           CLR     A
   \   000295   33           RLC     A
   \   000296   F8           MOV     R0,A
   \   000297   8002         SJMP    ??SampleApp_Send_P2P_Message_3
    628              }
    629            }else{
    630              IASStatus = 0x0000;
   \                     ??SampleApp_Send_P2P_Message_0:
   \   000299   7800         MOV     R0,#0x0
    631            }
    632            msgBuf_ias[0] = 0x19;
   \                     ??SampleApp_Send_P2P_Message_3:
   \   00029B   740B         MOV     A,#0xb
   \   00029D   12....       LCALL   ?XSTACK_DISP0_8
   \   0002A0   7419         MOV     A,#0x19
   \   0002A2   12....       LCALL   ??Subroutine12_0 & 0xFFFF
    633            msgBuf_ias[1] = zclSampleTemperatureSensorSeqNum;
   \                     ??CrossCallReturnLabel_17:
   \   0002A5   C0E0         PUSH    A
   \   0002A7   740C         MOV     A,#0xc
   \   0002A9   12....       LCALL   ?XSTACK_DISP0_8
   \   0002AC   D0E0         POP     A
   \   0002AE   12....       LCALL   ??Subroutine12_0 & 0xFFFF
    634            zclSampleTemperatureSensorSeqNum++;
   \                     ??CrossCallReturnLabel_18:
   \   0002B1   04           INC     A
   \   0002B2   F0           MOVX    @DPTR,A
    635            msgBuf_ias[2] = 0x00;
   \   0002B3   740D         MOV     A,#0xd
   \   0002B5   12....       LCALL   ?XSTACK_DISP0_8
   \   0002B8   E4           CLR     A
   \   0002B9   F0           MOVX    @DPTR,A
    636            msgBuf_ias[3] = IASStatus & 0xFF;
   \   0002BA   740E         MOV     A,#0xe
   \   0002BC   12....       LCALL   ?XSTACK_DISP0_8
   \   0002BF   E8           MOV     A,R0
   \   0002C0   F0           MOVX    @DPTR,A
    637            msgBuf_ias[4] = IASStatus >> 8 & 0xFF;
   \   0002C1   740F         MOV     A,#0xf
   \   0002C3   12....       LCALL   ?XSTACK_DISP0_8
   \   0002C6   E4           CLR     A
   \   0002C7   F0           MOVX    @DPTR,A
    638            msgBuf_ias[5] = 0x00;
   \   0002C8   7410         MOV     A,#0x10
   \   0002CA   12....       LCALL   ?XSTACK_DISP0_8
   \   0002CD   E4           CLR     A
   \   0002CE   F0           MOVX    @DPTR,A
    639            // Report Humidity
    640            if ( AF_DataRequest( &SampleApp_P2P_DstAddr, &SampleApp_epDesc,
    641                                 ZCL_CLUSTER_ID_SS_IAS_ZONE,
    642                                 6,
    643                                 (unsigned char *)msgBuf_ias,
    644                                 &SampleApp_TransID,
    645                                 AF_DISCV_ROUTE,
    646                                 AF_DEFAULT_RADIUS ) == afStatus_SUCCESS )
   \   0002CF                ; Setup parameters for call to function AF_DataRequest
   \   0002CF   75..1E       MOV     ?V0 + 0,#0x1e
   \   0002D2   78..         MOV     R0,#?V0 + 0
   \   0002D4   12....       LCALL   ?PUSH_XSTACK_I_ONE
   \   0002D7   75....       MOV     ?V0 + 0,#SampleApp_TransID & 0xff
   \   0002DA   75....       MOV     ?V0 + 1,#(SampleApp_TransID >> 8) & 0xff
   \   0002DD   78..         MOV     R0,#?V0 + 0
   \   0002DF   12....       LCALL   ?PUSH_XSTACK_I_TWO
   \   0002E2   740E         MOV     A,#0xe
   \   0002E4   12....       LCALL   ?XSTACK_DISP0_8
   \   0002E7   8582..       MOV     ?V0 + 0,DPL
   \   0002EA   8583..       MOV     ?V0 + 1,DPH
   \   0002ED   78..         MOV     R0,#?V0 + 0
   \   0002EF   12....       LCALL   ?PUSH_XSTACK_I_TWO
   \   0002F2   75..06       MOV     ?V0 + 0,#0x6
   \   0002F5   75..00       MOV     ?V0 + 1,#0x0
   \   0002F8   78..         MOV     R0,#?V0 + 0
   \   0002FA   12....       LCALL   ?PUSH_XSTACK_I_TWO
   \   0002FD   75..00       MOV     ?V0 + 0,#0x0
   \   000300   75..05       MOV     ?V0 + 1,#0x5
   \   000303   78..         MOV     R0,#?V0 + 0
   \   000305   12....       LCALL   ?PUSH_XSTACK_I_TWO
   \   000308   12....       LCALL   ?Subroutine7 & 0xFFFF
   \                     ??CrossCallReturnLabel_8:
   \   00030B   12....       LCALL   ?DEALLOC_XSTACK8
    647            {
    648            }
    649            else
    650            {
    651              // Error occurred in request to send.
    652            }
    653            
    654            
    655          }
   \   00030E   7428         MOV     A,#0x28
   \   000310   12....       LCALL   ?DEALLOC_XSTACK8
   \   000313   02....       LJMP    ?Subroutine0 & 0xFFFF
   \   000316                REQUIRE _A_P0

   \                                 In  segment BANKED_CODE, align 1, keep-with-next
   \                     ?Subroutine8:
   \   000000   AA82         MOV     R2,DPL
   \   000002   AB83         MOV     R3,DPH
   \   000004                REQUIRE ??Subroutine11_0
   \   000004                ; // Fall through to label ??Subroutine11_0

   \                                 In  segment BANKED_CODE, align 1, keep-with-next
   \                     ?Subroutine5:
   \   000000   F0           MOVX    @DPTR,A
   \   000001   EC           MOV     A,R4
   \   000002   F8           MOV     R0,A
   \   000003   ED           MOV     A,R5
   \   000004   F9           MOV     R1,A
   \   000005   7A0A         MOV     R2,#0xa
   \   000007   7B00         MOV     R3,#0x0
   \   000009   22           RET

   \                                 In  segment BANKED_CODE, align 1, keep-with-next
   \                     ?Subroutine4:
   \   000000   7418         MOV     A,#0x18
   \   000002                REQUIRE ??Subroutine12_0
   \   000002                ; // Fall through to label ??Subroutine12_0

   \                                 In  segment BANKED_CODE, align 1, keep-with-next
   \                     ??Subroutine12_0:
   \   000000   F0           MOVX    @DPTR,A
   \   000001   90....       MOV     DPTR,#zclSampleTemperatureSensorSeqNum
   \   000004   E0           MOVX    A,@DPTR
   \   000005   22           RET

   \                                 In  segment BANKED_CODE, align 1, keep-with-next
   \                     ?Subroutine3:
   \   000000   E0           MOVX    A,@DPTR
   \   000001   FA           MOV     R2,A
   \   000002   E8           MOV     A,R0
   \   000003   2A           ADD     A,R2
   \   000004   F5..         MOV     ?V0 + 0,A
   \   000006   E5F0         MOV     A,B
   \   000008   3400         ADDC    A,#0x0
   \   00000A   F5..         MOV     ?V0 + 1,A
   \   00000C   22           RET

   \                                 In  segment BANK_RELAYS, align 1
   \                     ??SampleApp_Init?relay:
   \   000000   12....       LCALL   ?BDISPATCH
   \   000003   ......       DC24    SampleApp_Init

   \                                 In  segment BANK_RELAYS, align 1
   \                     ??SampleApp_ProcessEvent?relay:
   \   000000   12....       LCALL   ?BDISPATCH
   \   000003   ......       DC24    SampleApp_ProcessEvent

   \                                 In  segment BANK_RELAYS, align 1
   \                     ??SampleApp_HandleKeys?relay:
   \   000000   12....       LCALL   ?BDISPATCH
   \   000003   ......       DC24    SampleApp_HandleKeys

   \                                 In  segment BANK_RELAYS, align 1
   \                     ??SampleApp_MessageMSGCB?relay:
   \   000000   12....       LCALL   ?BDISPATCH
   \   000003   ......       DC24    SampleApp_MessageMSGCB

   \                                 In  segment BANK_RELAYS, align 1
   \                     ??SampleApp_SendPeriodicMessage?relay:
   \   000000   12....       LCALL   ?BDISPATCH
   \   000003   ......       DC24    SampleApp_SendPeriodicMessage

   \                                 In  segment BANK_RELAYS, align 1
   \                     ??SampleApp_SendFlashMessage?relay:
   \   000000   12....       LCALL   ?BDISPATCH
   \   000003   ......       DC24    SampleApp_SendFlashMessage

   \                                 In  segment BANK_RELAYS, align 1
   \                     ??SampleApp_Send_P2P_Message?relay:
   \   000000   12....       LCALL   ?BDISPATCH
   \   000003   ......       DC24    SampleApp_Send_P2P_Message

   \                                 In  segment XDATA_ROM_C, align 1
   \                     `?<Constant "Group 1">`:
   \   000000   47726F75     DB "Group 1"
   \            70203100

   \                                 In  segment XDATA_ROM_C, align 1
   \                     `?<Constant "SampleApp">`:
   \   000000   53616D70     DB "SampleApp"
   \            6C654170
   \            7000    

   \                                 In  segment XDATA_ROM_C, align 1
   \                     `?<Constant "T&H:">`:
   \   000000   5426483A     DB "T&H:"
   \            00      

   \                                 In  segment XDATA_ROM_C, align 1
   \                     `?<Constant "\\n">`:
   \   000000   0A00         DB "\012"

   \                                 In  segment XDATA_ROM_C, align 1
   \                     `?<Constant "  ">`:
   \   000000   202000       DB "  "

   \                                 In  segment XDATA_ROM_C, align 1
   \                     `?<Constant "Gas:">`:
   \   000000   4761733A     DB "Gas:"
   \            00      
    656          /*********************************************************************
    657          *********************************************************************/

   Maximum stack usage in bytes:

     Function                       ISTACK PSTACK XSTACK
     --------                       ------ ------ ------
     SampleApp_HandleKeys               0      0     22
       -> SampleApp_SendFlashMessage
                                        0      0     20
       -> aps_FindGroup                 0      0     20
       -> aps_RemoveGroup               0      0     20
       -> aps_AddGroup                  0      0     20
     SampleApp_Init                     0      0     14
       -> MT_UartInit                   0      0     22
       -> MT_UartRegisterTaskID         0      0     22
       -> afRegister                    0      0     22
       -> RegisterForKeys               0      0     22
       -> osal_memcpy                   0      0     28
       -> aps_AddGroup                  0      0     22
       -> HalLcdWriteString             0      0     22
     SampleApp_MessageMSGCB             0      0     24
       -> HalUARTWrite                  0      0     24
       -> HalUARTWrite                  0      0     24
       -> HalUARTWrite                  0      0     24
       -> HalLedBlink                   0      0     24
     SampleApp_ProcessEvent             0      0     12
       -> osal_msg_receive              0      0     24
       -> osal_start_timerEx            0      0     24
       -> osal_msg_deallocate           0      0     24
       -> osal_msg_receive              0      0     24
       -> SampleApp_HandleKeys          0      0     24
       -> SampleApp_MessageMSGCB        0      0     24
       -> SampleApp_Send_P2P_Message
                                        0      0     24
       -> osal_rand                     0      0     24
       -> osal_start_timerEx            0      0     24
     SampleApp_SendFlashMessage         1      0     32
       -> AF_DataRequest                0      0     44
     SampleApp_SendPeriodicMessage      0      0     19
       -> AF_DataRequest                0      0     38
     SampleApp_Send_P2P_Message         1      0     72
       -> DHT11                         0      0    102
       -> osal_memcpy                   0      0    108
       -> osal_memcpy                   0      0    108
       -> osal_memcpy                   0      0    108
       -> ReadGasData                   0      0    102
       -> HalUARTWrite                  0      0    102
       -> HalUARTWrite                  0      0    102
       -> HalUARTWrite                  0      0    102
       -> HalUARTWrite                  0      0    102
       -> HalUARTWrite                  0      0    102
       -> AF_DataRequest                0      0    120
       -> AF_DataRequest                0      0    120
       -> Onboard_wait                  0      0    102
       -> AF_DataRequest                0      0    120


   Segment part sizes:

     Function/Label                        Bytes
     --------------                        -----
     _A_P0                                    1
     P0SEL                                    1
     P0DIR                                    1
     zclSampleTemperatureSensorSeqNum
                                              1
     SampleApp_ClusterList                   10
     SampleApp_SimpleDesc                    12
     SampleApp_epDesc                         6
     SampleApp_TaskID                         1
     SampleApp_NwkState                       1
     SampleApp_TransID                        1
     SampleApp_Periodic_DstAddr              12
     SampleApp_Flash_DstAddr                 12
     SampleApp_P2P_DstAddr                   12
     SampleApp_Group                         18
     SampleAppPeriodicCounter                 1
     SampleAppFlashCounter                    1
     SampleApp_Init                         197
     ?Subroutine0                             5
     ??Subroutine11_0                         6
     SampleApp_ProcessEvent                 171
     ?Subroutine1                             5
     SampleApp_HandleKeys                    62
     ??Subroutine9_0                          5
     SampleApp_MessageMSGCB                 152
     ?Subroutine6                            19
     SampleApp_SendPeriodicMessage           64
     ?Subroutine2                             3
     ??Subroutine10_0                         6
     SampleApp_SendFlashMessage             115
     ?Subroutine7                            10
     SampleApp_Send_P2P_Message             790
     ?Subroutine8                             4
     ?Subroutine5                            10
     ?Subroutine4                             2
     ??Subroutine12_0                         6
     ?Subroutine3                            13
     ??SampleApp_Init?relay                   6
     ??SampleApp_ProcessEvent?relay           6
     ??SampleApp_HandleKeys?relay             6
     ??SampleApp_MessageMSGCB?relay           6
     ??SampleApp_SendPeriodicMessage?relay    6
     ??SampleApp_SendFlashMessage?relay       6
     ??SampleApp_Send_P2P_Message?relay       6
     ?<Constant "Group 1">                    8
     ?<Constant "SampleApp">                 10
     ?<Constant "T&H:">                       5
     ?<Constant "\n">                         2
     ?<Constant "  ">                         3
     ?<Constant "Gas:">                       5

 
 1 645 bytes in segment BANKED_CODE
    42 bytes in segment BANK_RELAYS
     3 bytes in segment SFR_AN
    55 bytes in segment XDATA_ROM_C
    66 bytes in segment XDATA_Z
 
 1 687 bytes of CODE  memory
    55 bytes of CONST memory
     0 bytes of DATA  memory (+ 3 bytes shared)
    66 bytes of XDATA memory

Errors: none
Warnings: 1
